
/tmp/pocl_vortex_kernel-f8-07-07-6f-87.elf:	file format ELF32-riscv


Disassembly of section .init:

80000000 _start:
80000000: 73 25 10 fc                  	csrr	a0, 4033
80000004: 97 05 00 00                  	auipc	a1, 0
80000008: 93 85 45 31                  	addi	a1, a1, 788
8000000c: 6b 10 b5 00                  	vx_wspawn	a0, a1
80000010: ef 00 80 30                  	jal	776
80000014: 13 05 10 00                  	addi	a0, zero, 1
80000018: 6b 00 05 00                  	vx_tmc	a0
8000001c: 73 25 10 fc                  	csrr	a0, 4033
80000020: 97 05 00 00                  	auipc	a1, 0
80000024: 93 85 45 34                  	addi	a1, a1, 836
80000028: 6b 10 b5 00                  	vx_wspawn	a0, a1
8000002c: ef 00 80 33                  	jal	824
80000030: 13 05 10 00                  	addi	a0, zero, 1
80000034: 6b 00 05 00                  	vx_tmc	a0
80000038: 17 15 00 00                  	auipc	a0, 1
8000003c: 13 05 c5 3f                  	addi	a0, a0, 1020
80000040: 17 16 00 00                  	auipc	a2, 1
80000044: 13 06 46 47                  	addi	a2, a2, 1140
80000048: 33 06 a6 40                  	sub	a2, a2, a0
8000004c: 93 05 00 00                  	mv	a1, zero
80000050: ef 00 90 39                  	jal	2968
80000054: 17 05 00 00                  	auipc	a0, 0
80000058: 13 05 05 40                  	addi	a0, a0, 1024
8000005c: ef 00 90 22                  	jal	2600
80000060: ef 00 00 36                  	jal	864
80000064: ef 00 00 02                  	jal	32
80000068: 6f 00 10 23                  	j	2608

Disassembly of section .text:

8000006c register_fini:
8000006c: 93 07 00 00                  	mv	a5, zero
80000070: 63 88 07 00                  	beqz	a5, 16
80000074: 37 05 00 80                  	lui	a0, 524288
80000078: 13 05 45 45                  	addi	a0, a0, 1108
8000007c: 6f 00 90 20                  	j	2568
80000080: 67 80 00 00                  	ret

80000084 main:
80000084: 13 01 01 ff                  	addi	sp, sp, -16
80000088: 23 26 11 00                  	sw	ra, 12(sp)
8000008c: 37 05 00 80                  	lui	a0, 524288
80000090: 93 05 45 18                  	addi	a1, a0, 388
80000094: 37 05 ff 7f                  	lui	a0, 524272
80000098: 13 06 45 03                  	addi	a2, a0, 52
8000009c: 37 05 ff 7f                  	lui	a0, 524272
800000a0: ef 00 c0 61                  	jal	1564
800000a4: 13 05 00 00                  	mv	a0, zero
800000a8: 83 20 c1 00                  	lw	ra, 12(sp)
800000ac: 13 01 01 01                  	addi	sp, sp, 16
800000b0: 67 80 00 00                  	ret

800000b4 _pocl_kernel_saxpy:
800000b4: 13 01 01 ff                  	addi	sp, sp, -16
800000b8: 23 26 11 00                  	sw	ra, 12(sp)
800000bc: 23 24 81 00                  	sw	s0, 8(sp)
800000c0: 13 04 01 01                  	addi	s0, sp, 16
800000c4: 13 71 c1 ff                  	andi	sp, sp, -4
800000c8: 03 27 86 01                  	lw	a4, 24(a2)
800000cc: 83 27 c6 00                  	lw	a5, 12(a2)
800000d0: 13 03 00 00                  	mv	t1, zero
800000d4: b3 06 d7 02                  	mul	a3, a4, a3
800000d8: b3 86 d7 00                  	add	a3, a5, a3
800000dc: 83 2e c6 01                  	lw	t4, 28(a2)
800000e0: 83 28 06 02                  	lw	a7, 32(a2)
800000e4: 13 96 26 00                  	slli	a2, a3, 2
800000e8: b3 83 c5 00                  	add	t2, a1, a2
800000ec: 33 0e c5 00                  	add	t3, a0, a2
800000f0: 73 28 40 cc                  	csrr	a6, tmask
800000f4: 13 06 00 00                  	mv	a2, zero
800000f8: f3 22 40 cc                  	csrr	t0, tmask
800000fc: 93 05 00 00                  	mv	a1, zero
80000100: 73 2f 40 cc                  	csrr	t5, tmask
80000104: 13 05 0e 00                  	mv	a0, t3
80000108: 93 86 03 00                  	mv	a3, t2
8000010c: 07 20 05 00                  	flw	ft0, 0(a0)
80000110: 87 a0 06 00                  	flw	ft1, 0(a3)
80000114: 53 70 a0 10                  	fmul.s	ft0, ft0, fa0
80000118: 53 70 10 00                  	fadd.s	ft0, ft0, ft1
8000011c: 27 a0 06 00                  	fsw	ft0, 0(a3)
80000120: 93 85 15 00                  	addi	a1, a1, 1
80000124: b3 b7 e5 00                  	sltu	a5, a1, a4
80000128: 93 c7 17 00                  	xori	a5, a5, 1
8000012c: 6b 80 17 00                  	vx_pred	a5
80000130: 93 86 46 00                  	addi	a3, a3, 4
80000134: 13 05 45 00                  	addi	a0, a0, 4
80000138: e3 ea e5 fc                  	bltu	a1, a4, -44
8000013c: 6b 00 0f 00                  	vx_tmc	t5
80000140: 13 06 16 00                  	addi	a2, a2, 1
80000144: 33 35 d6 01                  	sltu	a0, a2, t4
80000148: 13 45 15 00                  	xori	a0, a0, 1
8000014c: 6b 00 15 00                  	vx_pred	a0
80000150: e3 66 d6 fb                  	bltu	a2, t4, -84
80000154: 6b 80 02 00                  	vx_tmc	t0
80000158: 13 03 13 00                  	addi	t1, t1, 1
8000015c: 33 35 13 01                  	sltu	a0, t1, a7
80000160: 13 45 15 00                  	xori	a0, a0, 1
80000164: 6b 00 15 00                  	vx_pred	a0
80000168: e3 66 13 f9                  	bltu	t1, a7, -116
8000016c: 6b 00 08 00                  	vx_tmc	a6
80000170: 13 01 04 ff                  	addi	sp, s0, -16
80000174: 03 24 81 00                  	lw	s0, 8(sp)
80000178: 83 20 c1 00                  	lw	ra, 12(sp)
8000017c: 13 01 01 01                  	addi	sp, sp, 16
80000180: 67 80 00 00                  	ret

80000184 _pocl_kernel_saxpy_workgroup:
80000184: 83 26 85 00                  	lw	a3, 8(a0)
80000188: 13 03 00 00                  	mv	t1, zero
8000018c: 03 27 05 00                  	lw	a4, 0(a0)
80000190: 83 27 45 00                  	lw	a5, 4(a0)
80000194: 07 a0 06 00                  	flw	ft0, 0(a3)
80000198: 03 a5 85 01                  	lw	a0, 24(a1)
8000019c: 83 a6 c5 00                  	lw	a3, 12(a1)
800001a0: 03 27 07 00                  	lw	a4, 0(a4)
800001a4: 83 a7 07 00                  	lw	a5, 0(a5)
800001a8: 33 06 c5 02                  	mul	a2, a0, a2
800001ac: 33 86 c6 00                  	add	a2, a3, a2
800001b0: 83 ae c5 01                  	lw	t4, 28(a1)
800001b4: 83 a8 05 02                  	lw	a7, 32(a1)
800001b8: 93 15 26 00                  	slli	a1, a2, 2
800001bc: b3 83 b7 00                  	add	t2, a5, a1
800001c0: 33 0e b7 00                  	add	t3, a4, a1
800001c4: 73 28 40 cc                  	csrr	a6, tmask
800001c8: 93 05 00 00                  	mv	a1, zero
800001cc: f3 22 40 cc                  	csrr	t0, tmask
800001d0: 93 07 00 00                  	mv	a5, zero
800001d4: 73 2f 40 cc                  	csrr	t5, tmask
800001d8: 13 07 0e 00                  	mv	a4, t3
800001dc: 13 86 03 00                  	mv	a2, t2
800001e0: 87 20 07 00                  	flw	ft1, 0(a4)
800001e4: 07 21 06 00                  	flw	ft2, 0(a2)
800001e8: d3 f0 00 10                  	fmul.s	ft1, ft1, ft0
800001ec: d3 f0 20 00                  	fadd.s	ft1, ft1, ft2
800001f0: 27 20 16 00                  	fsw	ft1, 0(a2)
800001f4: 93 87 17 00                  	addi	a5, a5, 1
800001f8: b3 b6 a7 00                  	sltu	a3, a5, a0
800001fc: 93 c6 16 00                  	xori	a3, a3, 1
80000200: 6b 80 16 00                  	vx_pred	a3
80000204: 13 06 46 00                  	addi	a2, a2, 4
80000208: 13 07 47 00                  	addi	a4, a4, 4
8000020c: e3 ea a7 fc                  	bltu	a5, a0, -44
80000210: 6b 00 0f 00                  	vx_tmc	t5
80000214: 93 85 15 00                  	addi	a1, a1, 1
80000218: 33 b6 d5 01                  	sltu	a2, a1, t4
8000021c: 13 46 16 00                  	xori	a2, a2, 1
80000220: 6b 00 16 00                  	vx_pred	a2
80000224: e3 e6 d5 fb                  	bltu	a1, t4, -84
80000228: 6b 80 02 00                  	vx_tmc	t0
8000022c: 13 03 13 00                  	addi	t1, t1, 1
80000230: b3 35 13 01                  	sltu	a1, t1, a7
80000234: 93 c5 15 00                  	xori	a1, a1, 1
80000238: 6b 80 15 00                  	vx_pred	a1
8000023c: e3 66 13 f9                  	bltu	t1, a7, -116
80000240: 6b 00 08 00                  	vx_tmc	a6
80000244: 67 80 00 00                  	ret

80000248 _pocl_kernel_saxpy_workgroup_fast:
80000248: 83 26 85 00                  	lw	a3, 8(a0)
8000024c: 13 03 00 00                  	mv	t1, zero
80000250: 07 a0 06 00                  	flw	ft0, 0(a3)
80000254: 03 a7 85 01                  	lw	a4, 24(a1)
80000258: 83 a6 c5 00                  	lw	a3, 12(a1)
8000025c: 83 27 05 00                  	lw	a5, 0(a0)
80000260: 03 25 45 00                  	lw	a0, 4(a0)
80000264: 33 06 c7 02                  	mul	a2, a4, a2
80000268: 33 86 c6 00                  	add	a2, a3, a2
8000026c: 83 ae c5 01                  	lw	t4, 28(a1)
80000270: 83 a8 05 02                  	lw	a7, 32(a1)
80000274: 93 15 26 00                  	slli	a1, a2, 2
80000278: b3 03 b5 00                  	add	t2, a0, a1
8000027c: 33 8e b7 00                  	add	t3, a5, a1
80000280: 73 28 40 cc                  	csrr	a6, tmask
80000284: 93 05 00 00                  	mv	a1, zero
80000288: f3 22 40 cc                  	csrr	t0, tmask
8000028c: 93 07 00 00                  	mv	a5, zero
80000290: 73 2f 40 cc                  	csrr	t5, tmask
80000294: 13 06 0e 00                  	mv	a2, t3
80000298: 13 85 03 00                  	mv	a0, t2
8000029c: 87 20 06 00                  	flw	ft1, 0(a2)
800002a0: 07 21 05 00                  	flw	ft2, 0(a0)
800002a4: d3 f0 00 10                  	fmul.s	ft1, ft1, ft0
800002a8: d3 f0 20 00                  	fadd.s	ft1, ft1, ft2
800002ac: 27 20 15 00                  	fsw	ft1, 0(a0)
800002b0: 93 87 17 00                  	addi	a5, a5, 1
800002b4: b3 b6 e7 00                  	sltu	a3, a5, a4
800002b8: 93 c6 16 00                  	xori	a3, a3, 1
800002bc: 6b 80 16 00                  	vx_pred	a3
800002c0: 13 05 45 00                  	addi	a0, a0, 4
800002c4: 13 06 46 00                  	addi	a2, a2, 4
800002c8: e3 ea e7 fc                  	bltu	a5, a4, -44
800002cc: 6b 00 0f 00                  	vx_tmc	t5
800002d0: 93 85 15 00                  	addi	a1, a1, 1
800002d4: 33 b5 d5 01                  	sltu	a0, a1, t4
800002d8: 13 45 15 00                  	xori	a0, a0, 1
800002dc: 6b 00 15 00                  	vx_pred	a0
800002e0: e3 e6 d5 fb                  	bltu	a1, t4, -84
800002e4: 6b 80 02 00                  	vx_tmc	t0
800002e8: 13 03 13 00                  	addi	t1, t1, 1
800002ec: 33 35 13 01                  	sltu	a0, t1, a7
800002f0: 13 45 15 00                  	xori	a0, a0, 1
800002f4: 6b 00 15 00                  	vx_pred	a0
800002f8: e3 66 13 f9                  	bltu	t1, a7, -116
800002fc: 6b 00 08 00                  	vx_tmc	a6
80000300: 67 80 00 00                  	ret

80000304 _exit:
80000304: 13 04 05 00                  	mv	s0, a0
80000308: ef 00 80 56                  	jal	1384
8000030c: 93 01 04 00                  	mv	gp, s0
80000310: 13 05 00 00                  	mv	a0, zero
80000314: 6b 00 05 00                  	vx_tmc	a0

80000318 init_regs:
80000318: 13 05 f0 ff                  	addi	a0, zero, -1
8000031c: 6b 00 05 00                  	vx_tmc	a0
80000320: 97 11 00 00                  	auipc	gp, 1
80000324: 93 81 81 4e                  	addi	gp, gp, 1256
80000328: 37 01 00 ff                  	lui	sp, 1044480
8000032c: 73 25 10 cc                  	csrr	a0, 3265
80000330: 93 15 a5 00                  	slli	a1, a0, 10
80000334: 33 01 b1 40                  	sub	sp, sp, a1
80000338: 93 05 00 00                  	mv	a1, zero
8000033c: 33 05 b5 02                  	mul	a0, a0, a1
80000340: 17 12 00 00                  	auipc	tp, 1
80000344: 13 02 32 1b                  	addi	tp, tp, 435
80000348: 33 02 a2 00                  	add	tp, tp, a0
8000034c: 13 72 02 fc                  	andi	tp, tp, -64
80000350: f3 26 30 cc                  	csrr	a3, 3267
80000354: 63 86 06 00                  	beqz	a3, 12
80000358: 13 05 00 00                  	mv	a0, zero
8000035c: 6b 00 05 00                  	vx_tmc	a0

80000360 RETURN:
80000360: 67 80 00 00                  	ret

80000364 __init_tls:
80000364: 13 01 01 ff                  	addi	sp, sp, -16
80000368: 23 26 11 00                  	sw	ra, 12(sp)
8000036c: 23 24 81 00                  	sw	s0, 8(sp)
80000370: 93 07 f0 ff                  	addi	a5, zero, -1
80000374: 6b 80 07 00                  	vx_tmc	a5
80000378: 13 06 00 00                  	mv	a2, zero
8000037c: 13 05 02 00                  	mv	a0, tp
80000380: 97 15 00 00                  	auipc	a1, 1
80000384: 93 85 05 c8                  	addi	a1, a1, -896
80000388: 13 04 02 00                  	mv	s0, tp
8000038c: ef 00 00 74                  	jal	1856
80000390: 13 05 00 00                  	mv	a0, zero
80000394: 13 06 00 00                  	mv	a2, zero
80000398: 93 05 00 00                  	mv	a1, zero
8000039c: 33 05 a4 00                  	add	a0, s0, a0
800003a0: ef 00 90 04                  	jal	2120
800003a4: f3 27 30 cc                  	csrr	a5, 3267
800003a8: 93 b7 17 00                  	seqz	a5, a5
800003ac: 6b 80 07 00                  	vx_tmc	a5
800003b0: 83 20 c1 00                  	lw	ra, 12(sp)
800003b4: 03 24 81 00                  	lw	s0, 8(sp)
800003b8: 13 01 01 01                  	addi	sp, sp, 16
800003bc: 67 80 00 00                  	ret

800003c0 __libc_init_array:
800003c0: 13 01 01 ff                  	addi	sp, sp, -16
800003c4: 23 24 81 00                  	sw	s0, 8(sp)
800003c8: 23 20 21 01                  	sw	s2, 0(sp)
800003cc: 17 14 00 00                  	auipc	s0, 1
800003d0: 13 04 44 c3                  	addi	s0, s0, -972
800003d4: 17 19 00 00                  	auipc	s2, 1
800003d8: 13 09 c9 c2                  	addi	s2, s2, -980
800003dc: 33 09 89 40                  	sub	s2, s2, s0
800003e0: 23 26 11 00                  	sw	ra, 12(sp)
800003e4: 23 22 91 00                  	sw	s1, 4(sp)
800003e8: 13 59 29 40                  	srai	s2, s2, 2
800003ec: 63 0e 09 00                  	beqz	s2, 28
800003f0: 93 04 00 00                  	mv	s1, zero
800003f4: 83 27 04 00                  	lw	a5, 0(s0)
800003f8: 93 84 14 00                  	addi	s1, s1, 1
800003fc: 13 04 44 00                  	addi	s0, s0, 4
80000400: e7 80 07 00                  	jalr	a5
80000404: e3 18 99 fe                  	bne	s2, s1, -16
80000408: 17 14 00 00                  	auipc	s0, 1
8000040c: 13 04 84 bf                  	addi	s0, s0, -1032
80000410: 17 19 00 00                  	auipc	s2, 1
80000414: 13 09 49 bf                  	addi	s2, s2, -1036
80000418: 33 09 89 40                  	sub	s2, s2, s0
8000041c: 13 59 29 40                  	srai	s2, s2, 2
80000420: 63 0e 09 00                  	beqz	s2, 28
80000424: 93 04 00 00                  	mv	s1, zero
80000428: 83 27 04 00                  	lw	a5, 0(s0)
8000042c: 93 84 14 00                  	addi	s1, s1, 1
80000430: 13 04 44 00                  	addi	s0, s0, 4
80000434: e7 80 07 00                  	jalr	a5
80000438: e3 18 99 fe                  	bne	s2, s1, -16
8000043c: 83 20 c1 00                  	lw	ra, 12(sp)
80000440: 03 24 81 00                  	lw	s0, 8(sp)
80000444: 83 24 41 00                  	lw	s1, 4(sp)
80000448: 03 29 01 00                  	lw	s2, 0(sp)
8000044c: 13 01 01 01                  	addi	sp, sp, 16
80000450: 67 80 00 00                  	ret

80000454 __libc_fini_array:
80000454: 13 01 01 ff                  	addi	sp, sp, -16
80000458: 23 24 81 00                  	sw	s0, 8(sp)
8000045c: 97 17 00 00                  	auipc	a5, 1
80000460: 93 87 87 ba                  	addi	a5, a5, -1112
80000464: 17 14 00 00                  	auipc	s0, 1
80000468: 13 04 04 ba                  	addi	s0, s0, -1120
8000046c: b3 87 87 40                  	sub	a5, a5, s0
80000470: 23 22 91 00                  	sw	s1, 4(sp)
80000474: 23 26 11 00                  	sw	ra, 12(sp)
80000478: 93 d4 27 40                  	srai	s1, a5, 2
8000047c: 63 80 04 02                  	beqz	s1, 32
80000480: 93 87 c7 ff                  	addi	a5, a5, -4
80000484: 33 84 87 00                  	add	s0, a5, s0
80000488: 83 27 04 00                  	lw	a5, 0(s0)
8000048c: 93 84 f4 ff                  	addi	s1, s1, -1
80000490: 13 04 c4 ff                  	addi	s0, s0, -4
80000494: e7 80 07 00                  	jalr	a5
80000498: e3 98 04 fe                  	bnez	s1, -16
8000049c: 83 20 c1 00                  	lw	ra, 12(sp)
800004a0: 03 24 81 00                  	lw	s0, 8(sp)
800004a4: 83 24 41 00                  	lw	s1, 4(sp)
800004a8: 13 01 01 01                  	addi	sp, sp, 16
800004ac: 67 80 00 00                  	ret

800004b0 spawn_kernel_all_stub:
800004b0: 13 01 01 fe                  	addi	sp, sp, -32
800004b4: 23 2e 11 00                  	sw	ra, 28(sp)
800004b8: 23 2c 81 00                  	sw	s0, 24(sp)
800004bc: 23 2a 91 00                  	sw	s1, 20(sp)
800004c0: 23 28 21 01                  	sw	s2, 16(sp)
800004c4: 23 26 31 01                  	sw	s3, 12(sp)
800004c8: 23 24 41 01                  	sw	s4, 8(sp)
800004cc: f3 27 50 cc                  	csrr	a5, 3269
800004d0: 73 27 30 cc                  	csrr	a4, 3267
800004d4: f3 26 00 cc                  	csrr	a3, 3264
800004d8: 73 25 00 fc                  	csrr	a0, 4032
800004dc: 13 96 27 00                  	slli	a2, a5, 2
800004e0: 97 17 00 00                  	auipc	a5, 1
800004e4: 93 87 47 f5                  	addi	a5, a5, -172
800004e8: b3 87 c7 00                  	add	a5, a5, a2
800004ec: 03 a4 07 00                  	lw	s0, 0(a5)
800004f0: 83 24 44 01                  	lw	s1, 20(s0)
800004f4: 03 26 04 01                  	lw	a2, 16(s0)
800004f8: 33 2a 97 00                  	slt	s4, a4, s1
800004fc: 93 87 04 00                  	mv	a5, s1
80000500: 33 0a ca 00                  	add	s4, s4, a2
80000504: b3 04 e6 02                  	mul	s1, a2, a4
80000508: 63 54 f7 00                  	bge	a4, a5, 8
8000050c: 93 07 07 00                  	mv	a5, a4
80000510: b3 84 f4 00                  	add	s1, s1, a5
80000514: 83 25 04 00                  	lw	a1, 0(s0)
80000518: 03 27 c4 00                  	lw	a4, 12(s0)
8000051c: 03 a9 05 00                  	lw	s2, 0(a1)
80000520: 83 a9 45 00                  	lw	s3, 4(a1)
80000524: b3 84 a4 02                  	mul	s1, s1, a0
80000528: b3 07 da 02                  	mul	a5, s4, a3
8000052c: b3 84 e4 00                  	add	s1, s1, a4
80000530: b3 84 f4 00                  	add	s1, s1, a5
80000534: 33 0a 9a 00                  	add	s4, s4, s1
80000538: b3 09 39 03                  	mul	s3, s2, s3
8000053c: 63 c0 44 07                  	blt	s1, s4, 96
80000540: 6f 00 00 08                  	j	128
80000544: 03 47 e4 01                  	lbu	a4, 30(s0)
80000548: 83 46 d4 01                  	lbu	a3, 29(s0)
8000054c: 33 d7 e4 40                  	sra	a4, s1, a4
80000550: b3 07 37 03                  	mul	a5, a4, s3
80000554: b3 87 f4 40                  	sub	a5, s1, a5
80000558: 63 80 06 06                  	beqz	a3, 96
8000055c: 83 46 f4 01                  	lbu	a3, 31(s0)
80000560: b3 d6 d7 40                  	sra	a3, a5, a3
80000564: b3 88 26 03                  	mul	a7, a3, s2
80000568: 03 ae 45 01                  	lw	t3, 20(a1)
8000056c: 03 a3 05 01                  	lw	t1, 16(a1)
80000570: 03 a6 c5 00                  	lw	a2, 12(a1)
80000574: 03 28 44 00                  	lw	a6, 4(s0)
80000578: 03 25 84 00                  	lw	a0, 8(s0)
8000057c: 93 84 14 00                  	addi	s1, s1, 1
80000580: 33 07 c7 01                  	add	a4, a4, t3
80000584: b3 86 66 00                  	add	a3, a3, t1
80000588: b3 87 17 41                  	sub	a5, a5, a7
8000058c: 33 86 c7 00                  	add	a2, a5, a2
80000590: e7 00 08 00                  	jalr	a6
80000594: 63 06 9a 02                  	beq	s4, s1, 44
80000598: 83 25 04 00                  	lw	a1, 0(s0)
8000059c: 83 47 c4 01                  	lbu	a5, 28(s0)
800005a0: e3 92 07 fa                  	bnez	a5, -92
800005a4: 33 c7 34 03                  	div	a4, s1, s3
800005a8: 83 46 d4 01                  	lbu	a3, 29(s0)
800005ac: b3 07 37 03                  	mul	a5, a4, s3
800005b0: b3 87 f4 40                  	sub	a5, s1, a5
800005b4: e3 94 06 fa                  	bnez	a3, -88
800005b8: b3 c6 27 03                  	div	a3, a5, s2
800005bc: 6f f0 9f fa                  	j	-88
800005c0: 03 27 84 01                  	lw	a4, 24(s0)
800005c4: 93 07 00 00                  	mv	a5, zero
800005c8: 6b c0 e7 00                  	vx_bar	a5, a4
800005cc: 83 20 c1 01                  	lw	ra, 28(sp)
800005d0: 03 24 81 01                  	lw	s0, 24(sp)
800005d4: 83 24 41 01                  	lw	s1, 20(sp)
800005d8: 03 29 01 01                  	lw	s2, 16(sp)
800005dc: 83 29 c1 00                  	lw	s3, 12(sp)
800005e0: 03 2a 81 00                  	lw	s4, 8(sp)
800005e4: 13 01 01 02                  	addi	sp, sp, 32
800005e8: 67 80 00 00                  	ret

800005ec spawn_kernel_rem_stub:
800005ec: 73 27 50 cc                  	csrr	a4, 3269
800005f0: f3 27 20 cc                  	csrr	a5, 3266
800005f4: 93 16 27 00                  	slli	a3, a4, 2
800005f8: 17 17 00 00                  	auipc	a4, 1
800005fc: 13 07 c7 e3                  	addi	a4, a4, -452
80000600: 33 07 d7 00                  	add	a4, a4, a3
80000604: 03 25 07 00                  	lw	a0, 0(a4)
80000608: 83 25 05 00                  	lw	a1, 0(a0)
8000060c: 83 26 c5 00                  	lw	a3, 12(a0)
80000610: 03 47 c5 01                  	lbu	a4, 28(a0)
80000614: 83 a8 05 00                  	lw	a7, 0(a1)
80000618: 03 a6 45 00                  	lw	a2, 4(a1)
8000061c: b3 87 d7 00                  	add	a5, a5, a3
80000620: 33 86 c8 02                  	mul	a2, a7, a2
80000624: 63 08 07 04                  	beqz	a4, 80
80000628: 03 47 e5 01                  	lbu	a4, 30(a0)
8000062c: 83 46 d5 01                  	lbu	a3, 29(a0)
80000630: 33 d7 e7 40                  	sra	a4, a5, a4
80000634: 33 06 c7 02                  	mul	a2, a4, a2
80000638: b3 87 c7 40                  	sub	a5, a5, a2
8000063c: 63 86 06 04                  	beqz	a3, 76
80000640: 83 46 f5 01                  	lbu	a3, 31(a0)
80000644: 33 d8 d7 40                  	sra	a6, a5, a3
80000648: 83 a6 05 01                  	lw	a3, 16(a1)
8000064c: 03 ae 45 01                  	lw	t3, 20(a1)
80000650: 03 a6 c5 00                  	lw	a2, 12(a1)
80000654: b3 06 d8 00                  	add	a3, a6, a3
80000658: 33 08 18 03                  	mul	a6, a6, a7
8000065c: 03 23 45 00                  	lw	t1, 4(a0)
80000660: 03 25 85 00                  	lw	a0, 8(a0)
80000664: 33 07 c7 01                  	add	a4, a4, t3
80000668: b3 87 07 41                  	sub	a5, a5, a6
8000066c: 33 86 c7 00                  	add	a2, a5, a2
80000670: 67 00 03 00                  	jr	t1
80000674: 33 c7 c7 02                  	div	a4, a5, a2
80000678: 83 46 d5 01                  	lbu	a3, 29(a0)
8000067c: 33 06 c7 02                  	mul	a2, a4, a2
80000680: b3 87 c7 40                  	sub	a5, a5, a2
80000684: e3 9e 06 fa                  	bnez	a3, -68
80000688: 33 c8 17 03                  	div	a6, a5, a7
8000068c: 6f f0 df fb                  	j	-68

80000690 spawn_kernel_all_cb:
80000690: 13 01 01 ff                  	addi	sp, sp, -16
80000694: 23 26 11 00                  	sw	ra, 12(sp)
80000698: 93 07 f0 ff                  	addi	a5, zero, -1
8000069c: 6b 80 07 00                  	vx_tmc	a5
800006a0: ef f0 1f e1                  	jal	-496
800006a4: f3 27 30 cc                  	csrr	a5, 3267
800006a8: 93 b7 17 00                  	seqz	a5, a5
800006ac: 6b 80 07 00                  	vx_tmc	a5
800006b0: 83 20 c1 00                  	lw	ra, 12(sp)
800006b4: 13 01 01 01                  	addi	sp, sp, 16
800006b8: 67 80 00 00                  	ret

800006bc vx_spawn_kernel:
800006bc: 13 01 01 fd                  	addi	sp, sp, -48
800006c0: 23 26 11 02                  	sw	ra, 44(sp)
800006c4: 23 24 81 02                  	sw	s0, 40(sp)
800006c8: 23 22 91 02                  	sw	s1, 36(sp)
800006cc: 23 20 21 03                  	sw	s2, 32(sp)
800006d0: f3 28 20 fc                  	csrr	a7, 4034
800006d4: 73 23 10 fc                  	csrr	t1, 4033
800006d8: f3 24 00 fc                  	csrr	s1, 4032
800006dc: f3 27 50 cc                  	csrr	a5, 3269
800006e0: 13 07 f0 01                  	addi	a4, zero, 31
800006e4: 63 46 f7 0e                  	blt	a4, a5, 236
800006e8: 03 2e 05 00                  	lw	t3, 0(a0)
800006ec: 83 26 45 00                  	lw	a3, 4(a0)
800006f0: 03 28 85 00                  	lw	a6, 8(a0)
800006f4: b3 0e 93 02                  	mul	t4, t1, s1
800006f8: 13 07 10 00                  	addi	a4, zero, 1
800006fc: b3 06 de 02                  	mul	a3, t3, a3
80000700: 33 88 06 03                  	mul	a6, a3, a6
80000704: 63 d4 0e 01                  	bge	t4, a6, 8
80000708: 33 47 d8 03                  	div	a4, a6, t4
8000070c: 63 ce e8 0c                  	blt	a7, a4, 220
80000710: 63 d0 e7 0c                  	bge	a5, a4, 192
80000714: 93 88 f8 ff                  	addi	a7, a7, -1
80000718: 33 4f e8 02                  	div	t5, a6, a4
8000071c: 13 04 0f 00                  	mv	s0, t5
80000720: 63 96 f8 00                  	bne	a7, a5, 12
80000724: 33 67 e8 02                  	rem	a4, a6, a4
80000728: 33 04 e7 01                  	add	s0, a4, t5
8000072c: 33 49 94 02                  	div	s2, s0, s1
80000730: 33 64 94 02                  	rem	s0, s0, s1
80000734: 63 40 69 0c                  	blt	s2, t1, 192
80000738: 93 02 10 00                  	addi	t0, zero, 1
8000073c: b3 4f 69 02                  	div	t6, s2, t1
80000740: 63 86 0f 00                  	beqz	t6, 12
80000744: 93 82 0f 00                  	mv	t0, t6
80000748: b3 6f 69 02                  	rem	t6, s2, t1
8000074c: d3 f7 06 d0                  	fcvt.s.w	fa5, a3
80000750: 93 08 fe ff                  	addi	a7, t3, -1
80000754: 93 8e f6 ff                  	addi	t4, a3, -1
80000758: 53 88 07 e0                  	fmv.x.w	a6, fa5
8000075c: d3 77 0e d0                  	fcvt.s.w	fa5, t3
80000760: b3 f6 de 00                  	and	a3, t4, a3
80000764: 33 fe c8 01                  	and	t3, a7, t3
80000768: 53 87 07 e0                  	fmv.x.w	a4, fa5
8000076c: 13 58 78 41                  	srai	a6, a6, 23
80000770: 97 18 00 00                  	auipc	a7, 1
80000774: 93 88 48 cc                  	addi	a7, a7, -828
80000778: 13 57 77 41                  	srai	a4, a4, 23
8000077c: 93 b6 16 00                  	seqz	a3, a3
80000780: 13 3e 1e 00                  	seqz	t3, t3
80000784: 13 08 18 f8                  	addi	a6, a6, -127
80000788: 13 07 17 f8                  	addi	a4, a4, -127
8000078c: 23 20 a1 00                  	sw	a0, 0(sp)
80000790: 23 22 b1 00                  	sw	a1, 4(sp)
80000794: 23 24 c1 00                  	sw	a2, 8(sp)
80000798: 23 28 51 00                  	sw	t0, 16(sp)
8000079c: 23 2a f1 01                  	sw	t6, 20(sp)
800007a0: 23 2c 01 00                  	sw	zero, 24(sp)
800007a4: 23 0e d1 00                  	sb	a3, 28(sp)
800007a8: a3 0e c1 01                  	sb	t3, 29(sp)
800007ac: 23 0f 01 01                  	sb	a6, 30(sp)
800007b0: a3 0f e1 00                  	sb	a4, 31(sp)
800007b4: 33 0f ff 02                  	mul	t5, t5, a5
800007b8: 93 97 27 00                  	slli	a5, a5, 2
800007bc: b3 87 f8 00                  	add	a5, a7, a5
800007c0: 23 a0 27 00                  	sw	sp, 0(a5)
800007c4: 23 26 e1 01                  	sw	t5, 12(sp)
800007c8: 63 4c 20 03                  	bgtz	s2, 56
800007cc: 63 16 04 06                  	bnez	s0, 108
800007d0: 83 20 c1 02                  	lw	ra, 44(sp)
800007d4: 03 24 81 02                  	lw	s0, 40(sp)
800007d8: 83 24 41 02                  	lw	s1, 36(sp)
800007dc: 03 29 01 02                  	lw	s2, 32(sp)
800007e0: 13 01 01 03                  	addi	sp, sp, 48
800007e4: 67 80 00 00                  	ret
800007e8: 13 87 08 00                  	mv	a4, a7
800007ec: e3 c4 e7 f2                  	blt	a5, a4, -216
800007f0: 6f f0 1f fe                  	j	-32
800007f4: 93 0f 00 00                  	mv	t6, zero
800007f8: 93 02 10 00                  	addi	t0, zero, 1
800007fc: 6f f0 1f f5                  	j	-176
80000800: 93 07 09 00                  	mv	a5, s2
80000804: 63 54 23 01                  	bge	t1, s2, 8
80000808: 93 07 03 00                  	mv	a5, t1
8000080c: 23 2c f1 00                  	sw	a5, 24(sp)
80000810: 17 07 00 00                  	auipc	a4, 0
80000814: 13 07 07 e8                  	addi	a4, a4, -384
80000818: 6b 90 e7 00                  	vx_wspawn	a5, a4
8000081c: 93 07 f0 ff                  	addi	a5, zero, -1
80000820: 6b 80 07 00                  	vx_tmc	a5
80000824: ef f0 df c8                  	jal	-884
80000828: f3 27 30 cc                  	csrr	a5, 3267
8000082c: 93 b7 17 00                  	seqz	a5, a5
80000830: 6b 80 07 00                  	vx_tmc	a5
80000834: e3 0e 04 f8                  	beqz	s0, -100
80000838: b3 04 99 02                  	mul	s1, s2, s1
8000083c: 13 09 10 00                  	addi	s2, zero, 1
80000840: 33 14 89 00                  	sll	s0, s2, s0
80000844: 13 04 f4 ff                  	addi	s0, s0, -1
80000848: 23 26 91 00                  	sw	s1, 12(sp)
8000084c: 6b 00 04 00                  	vx_tmc	s0
80000850: ef f0 df d9                  	jal	-612
80000854: 6b 00 09 00                  	vx_tmc	s2
80000858: 83 20 c1 02                  	lw	ra, 44(sp)
8000085c: 03 24 81 02                  	lw	s0, 40(sp)
80000860: 83 24 41 02                  	lw	s1, 36(sp)
80000864: 03 29 01 02                  	lw	s2, 32(sp)
80000868: 13 01 01 03                  	addi	sp, sp, 48
8000086c: 67 80 00 00                  	ret

80000870 vx_perf_dump:
80000870: f3 27 50 cc                  	csrr	a5, 3269
80000874: 37 07 ff 00                  	lui	a4, 4080
80000878: b3 87 e7 00                  	add	a5, a5, a4
8000087c: 93 97 87 00                  	slli	a5, a5, 8
80000880: 73 27 00 b0                  	csrr	a4, mcycle
80000884: 23 a0 e7 00                  	sw	a4, 0(a5)
80000888: 73 27 10 b0                  	csrr	a4, 2817
8000088c: 23 a2 e7 00                  	sw	a4, 4(a5)
80000890: 73 27 20 b0                  	csrr	a4, minstret
80000894: 23 a4 e7 00                  	sw	a4, 8(a5)
80000898: 73 27 30 b0                  	csrr	a4, mhpmcounter3
8000089c: 23 a6 e7 00                  	sw	a4, 12(a5)
800008a0: 73 27 40 b0                  	csrr	a4, mhpmcounter4
800008a4: 23 a8 e7 00                  	sw	a4, 16(a5)
800008a8: 73 27 50 b0                  	csrr	a4, mhpmcounter5
800008ac: 23 aa e7 00                  	sw	a4, 20(a5)
800008b0: 73 27 60 b0                  	csrr	a4, mhpmcounter6
800008b4: 23 ac e7 00                  	sw	a4, 24(a5)
800008b8: 73 27 70 b0                  	csrr	a4, mhpmcounter7
800008bc: 23 ae e7 00                  	sw	a4, 28(a5)
800008c0: 73 27 80 b0                  	csrr	a4, mhpmcounter8
800008c4: 23 a0 e7 02                  	sw	a4, 32(a5)
800008c8: 73 27 90 b0                  	csrr	a4, mhpmcounter9
800008cc: 23 a2 e7 02                  	sw	a4, 36(a5)
800008d0: 73 27 a0 b0                  	csrr	a4, mhpmcounter10
800008d4: 23 a4 e7 02                  	sw	a4, 40(a5)
800008d8: 73 27 b0 b0                  	csrr	a4, mhpmcounter11
800008dc: 23 a6 e7 02                  	sw	a4, 44(a5)
800008e0: 73 27 c0 b0                  	csrr	a4, mhpmcounter12
800008e4: 23 a8 e7 02                  	sw	a4, 48(a5)
800008e8: 73 27 d0 b0                  	csrr	a4, mhpmcounter13
800008ec: 23 aa e7 02                  	sw	a4, 52(a5)
800008f0: 73 27 e0 b0                  	csrr	a4, mhpmcounter14
800008f4: 23 ac e7 02                  	sw	a4, 56(a5)
800008f8: 73 27 f0 b0                  	csrr	a4, mhpmcounter15
800008fc: 23 ae e7 02                  	sw	a4, 60(a5)
80000900: 73 27 00 b1                  	csrr	a4, mhpmcounter16
80000904: 23 a0 e7 04                  	sw	a4, 64(a5)
80000908: 73 27 10 b1                  	csrr	a4, mhpmcounter17
8000090c: 23 a2 e7 04                  	sw	a4, 68(a5)
80000910: 73 27 20 b1                  	csrr	a4, mhpmcounter18
80000914: 23 a4 e7 04                  	sw	a4, 72(a5)
80000918: 73 27 30 b1                  	csrr	a4, mhpmcounter19
8000091c: 23 a6 e7 04                  	sw	a4, 76(a5)
80000920: 73 27 40 b1                  	csrr	a4, mhpmcounter20
80000924: 23 a8 e7 04                  	sw	a4, 80(a5)
80000928: 73 27 50 b1                  	csrr	a4, mhpmcounter21
8000092c: 23 aa e7 04                  	sw	a4, 84(a5)
80000930: 73 27 60 b1                  	csrr	a4, mhpmcounter22
80000934: 23 ac e7 04                  	sw	a4, 88(a5)
80000938: 73 27 70 b1                  	csrr	a4, mhpmcounter23
8000093c: 23 ae e7 04                  	sw	a4, 92(a5)
80000940: 73 27 80 b1                  	csrr	a4, mhpmcounter24
80000944: 23 a0 e7 06                  	sw	a4, 96(a5)
80000948: 73 27 90 b1                  	csrr	a4, mhpmcounter25
8000094c: 23 a2 e7 06                  	sw	a4, 100(a5)
80000950: 73 27 a0 b1                  	csrr	a4, mhpmcounter26
80000954: 23 a4 e7 06                  	sw	a4, 104(a5)
80000958: 73 27 b0 b1                  	csrr	a4, mhpmcounter27
8000095c: 23 a6 e7 06                  	sw	a4, 108(a5)
80000960: 73 27 c0 b1                  	csrr	a4, mhpmcounter28
80000964: 23 a8 e7 06                  	sw	a4, 112(a5)
80000968: 73 27 d0 b1                  	csrr	a4, mhpmcounter29
8000096c: 23 aa e7 06                  	sw	a4, 116(a5)
80000970: 73 27 e0 b1                  	csrr	a4, mhpmcounter30
80000974: 23 ac e7 06                  	sw	a4, 120(a5)
80000978: 73 27 f0 b1                  	csrr	a4, mhpmcounter31
8000097c: 23 ae e7 06                  	sw	a4, 124(a5)
80000980: 73 27 00 b8                  	csrr	a4, mcycleh
80000984: 23 a0 e7 08                  	sw	a4, 128(a5)
80000988: 73 27 10 b8                  	csrr	a4, 2945
8000098c: 23 a2 e7 08                  	sw	a4, 132(a5)
80000990: 73 27 20 b8                  	csrr	a4, minstreth
80000994: 23 a4 e7 08                  	sw	a4, 136(a5)
80000998: 73 27 30 b8                  	csrr	a4, mhpmcounter3h
8000099c: 23 a6 e7 08                  	sw	a4, 140(a5)
800009a0: 73 27 40 b8                  	csrr	a4, mhpmcounter4h
800009a4: 23 a8 e7 08                  	sw	a4, 144(a5)
800009a8: 73 27 50 b8                  	csrr	a4, mhpmcounter5h
800009ac: 23 aa e7 08                  	sw	a4, 148(a5)
800009b0: 73 27 60 b8                  	csrr	a4, mhpmcounter6h
800009b4: 23 ac e7 08                  	sw	a4, 152(a5)
800009b8: 73 27 70 b8                  	csrr	a4, mhpmcounter7h
800009bc: 23 ae e7 08                  	sw	a4, 156(a5)
800009c0: 73 27 80 b8                  	csrr	a4, mhpmcounter8h
800009c4: 23 a0 e7 0a                  	sw	a4, 160(a5)
800009c8: 73 27 90 b8                  	csrr	a4, mhpmcounter9h
800009cc: 23 a2 e7 0a                  	sw	a4, 164(a5)
800009d0: 73 27 a0 b8                  	csrr	a4, mhpmcounter10h
800009d4: 23 a4 e7 0a                  	sw	a4, 168(a5)
800009d8: 73 27 b0 b8                  	csrr	a4, mhpmcounter11h
800009dc: 23 a6 e7 0a                  	sw	a4, 172(a5)
800009e0: 73 27 c0 b8                  	csrr	a4, mhpmcounter12h
800009e4: 23 a8 e7 0a                  	sw	a4, 176(a5)
800009e8: 73 27 d0 b8                  	csrr	a4, mhpmcounter13h
800009ec: 23 aa e7 0a                  	sw	a4, 180(a5)
800009f0: 73 27 e0 b8                  	csrr	a4, mhpmcounter14h
800009f4: 23 ac e7 0a                  	sw	a4, 184(a5)
800009f8: 73 27 f0 b8                  	csrr	a4, mhpmcounter15h
800009fc: 23 ae e7 0a                  	sw	a4, 188(a5)
80000a00: 73 27 00 b9                  	csrr	a4, mhpmcounter16h
80000a04: 23 a0 e7 0c                  	sw	a4, 192(a5)
80000a08: 73 27 10 b9                  	csrr	a4, mhpmcounter17h
80000a0c: 23 a2 e7 0c                  	sw	a4, 196(a5)
80000a10: 73 27 20 b9                  	csrr	a4, mhpmcounter18h
80000a14: 23 a4 e7 0c                  	sw	a4, 200(a5)
80000a18: 73 27 30 b9                  	csrr	a4, mhpmcounter19h
80000a1c: 23 a6 e7 0c                  	sw	a4, 204(a5)
80000a20: 73 27 40 b9                  	csrr	a4, mhpmcounter20h
80000a24: 23 a8 e7 0c                  	sw	a4, 208(a5)
80000a28: 73 27 50 b9                  	csrr	a4, mhpmcounter21h
80000a2c: 23 aa e7 0c                  	sw	a4, 212(a5)
80000a30: 73 27 60 b9                  	csrr	a4, mhpmcounter22h
80000a34: 23 ac e7 0c                  	sw	a4, 216(a5)
80000a38: 73 27 70 b9                  	csrr	a4, mhpmcounter23h
80000a3c: 23 ae e7 0c                  	sw	a4, 220(a5)
80000a40: 73 27 80 b9                  	csrr	a4, mhpmcounter24h
80000a44: 23 a0 e7 0e                  	sw	a4, 224(a5)
80000a48: 73 27 90 b9                  	csrr	a4, mhpmcounter25h
80000a4c: 23 a2 e7 0e                  	sw	a4, 228(a5)
80000a50: 73 27 a0 b9                  	csrr	a4, mhpmcounter26h
80000a54: 23 a4 e7 0e                  	sw	a4, 232(a5)
80000a58: 73 27 b0 b9                  	csrr	a4, mhpmcounter27h
80000a5c: 23 a6 e7 0e                  	sw	a4, 236(a5)
80000a60: 73 27 c0 b9                  	csrr	a4, mhpmcounter28h
80000a64: 23 a8 e7 0e                  	sw	a4, 240(a5)
80000a68: 73 27 d0 b9                  	csrr	a4, mhpmcounter29h
80000a6c: 23 aa e7 0e                  	sw	a4, 244(a5)
80000a70: 73 27 e0 b9                  	csrr	a4, mhpmcounter30h
80000a74: 23 ac e7 0e                  	sw	a4, 248(a5)
80000a78: 73 27 f0 b9                  	csrr	a4, mhpmcounter31h
80000a7c: 23 ae e7 0e                  	sw	a4, 252(a5)
80000a80: 67 80 00 00                  	ret

80000a84 atexit:
80000a84: 93 05 05 00                  	mv	a1, a0
80000a88: 93 06 00 00                  	mv	a3, zero
80000a8c: 13 06 00 00                  	mv	a2, zero
80000a90: 13 05 00 00                  	mv	a0, zero
80000a94: 6f 00 00 23                  	j	560

80000a98 exit:
80000a98: 13 01 01 ff                  	addi	sp, sp, -16
80000a9c: 93 05 00 00                  	mv	a1, zero
80000aa0: 23 24 81 00                  	sw	s0, 8(sp)
80000aa4: 23 26 11 00                  	sw	ra, 12(sp)
80000aa8: 13 04 05 00                  	mv	s0, a0
80000aac: ef 00 40 2b                  	jal	692
80000ab0: b7 17 00 80                  	lui	a5, 524289
80000ab4: 03 a5 07 43                  	lw	a0, 1072(a5)
80000ab8: 83 27 c5 03                  	lw	a5, 60(a0)
80000abc: 63 84 07 00                  	beqz	a5, 8
80000ac0: e7 80 07 00                  	jalr	a5
80000ac4: 13 05 04 00                  	mv	a0, s0
80000ac8: ef f0 df 83                  	jal	-1988

80000acc memcpy:
80000acc: b3 c7 a5 00                  	xor	a5, a1, a0
80000ad0: 93 f7 37 00                  	andi	a5, a5, 3
80000ad4: b3 08 c5 00                  	add	a7, a0, a2
80000ad8: 63 92 07 06                  	bnez	a5, 100
80000adc: 93 07 30 00                  	addi	a5, zero, 3
80000ae0: 63 fe c7 04                  	bgeu	a5, a2, 92
80000ae4: 93 77 35 00                  	andi	a5, a0, 3
80000ae8: 13 07 05 00                  	mv	a4, a0
80000aec: 63 98 07 06                  	bnez	a5, 112
80000af0: 13 f6 c8 ff                  	andi	a2, a7, -4
80000af4: 93 07 06 fe                  	addi	a5, a2, -32
80000af8: 63 6c f7 08                  	bltu	a4, a5, 152
80000afc: 63 7c c7 02                  	bgeu	a4, a2, 56
80000b00: 93 86 05 00                  	mv	a3, a1
80000b04: 93 07 07 00                  	mv	a5, a4
80000b08: 03 a8 06 00                  	lw	a6, 0(a3)
80000b0c: 93 87 47 00                  	addi	a5, a5, 4
80000b10: 93 86 46 00                  	addi	a3, a3, 4
80000b14: 23 ae 07 ff                  	sw	a6, -4(a5)
80000b18: e3 e8 c7 fe                  	bltu	a5, a2, -16
80000b1c: 93 07 f6 ff                  	addi	a5, a2, -1
80000b20: b3 87 e7 40                  	sub	a5, a5, a4
80000b24: 93 f7 c7 ff                  	andi	a5, a5, -4
80000b28: 93 87 47 00                  	addi	a5, a5, 4
80000b2c: 33 07 f7 00                  	add	a4, a4, a5
80000b30: b3 85 f5 00                  	add	a1, a1, a5
80000b34: 63 68 17 01                  	bltu	a4, a7, 16
80000b38: 67 80 00 00                  	ret
80000b3c: 13 07 05 00                  	mv	a4, a0
80000b40: e3 7c 15 ff                  	bgeu	a0, a7, -8
80000b44: 83 c7 05 00                  	lbu	a5, 0(a1)
80000b48: 13 07 17 00                  	addi	a4, a4, 1
80000b4c: 93 85 15 00                  	addi	a1, a1, 1
80000b50: a3 0f f7 fe                  	sb	a5, -1(a4)
80000b54: e3 68 17 ff                  	bltu	a4, a7, -16
80000b58: 67 80 00 00                  	ret
80000b5c: 83 c6 05 00                  	lbu	a3, 0(a1)
80000b60: 13 07 17 00                  	addi	a4, a4, 1
80000b64: 93 77 37 00                  	andi	a5, a4, 3
80000b68: a3 0f d7 fe                  	sb	a3, -1(a4)
80000b6c: 93 85 15 00                  	addi	a1, a1, 1
80000b70: e3 80 07 f8                  	beqz	a5, -128
80000b74: 83 c6 05 00                  	lbu	a3, 0(a1)
80000b78: 13 07 17 00                  	addi	a4, a4, 1
80000b7c: 93 77 37 00                  	andi	a5, a4, 3
80000b80: a3 0f d7 fe                  	sb	a3, -1(a4)
80000b84: 93 85 15 00                  	addi	a1, a1, 1
80000b88: e3 9a 07 fc                  	bnez	a5, -44
80000b8c: 6f f0 5f f6                  	j	-156
80000b90: 83 a6 45 00                  	lw	a3, 4(a1)
80000b94: 83 a2 05 00                  	lw	t0, 0(a1)
80000b98: 83 af 85 00                  	lw	t6, 8(a1)
80000b9c: 03 af c5 00                  	lw	t5, 12(a1)
80000ba0: 83 ae 05 01                  	lw	t4, 16(a1)
80000ba4: 03 ae 45 01                  	lw	t3, 20(a1)
80000ba8: 03 a3 85 01                  	lw	t1, 24(a1)
80000bac: 03 a8 c5 01                  	lw	a6, 28(a1)
80000bb0: 23 22 d7 00                  	sw	a3, 4(a4)
80000bb4: 83 a6 05 02                  	lw	a3, 32(a1)
80000bb8: 23 20 57 00                  	sw	t0, 0(a4)
80000bbc: 23 24 f7 01                  	sw	t6, 8(a4)
80000bc0: 23 26 e7 01                  	sw	t5, 12(a4)
80000bc4: 23 28 d7 01                  	sw	t4, 16(a4)
80000bc8: 23 2a c7 01                  	sw	t3, 20(a4)
80000bcc: 23 2c 67 00                  	sw	t1, 24(a4)
80000bd0: 23 2e 07 01                  	sw	a6, 28(a4)
80000bd4: 23 20 d7 02                  	sw	a3, 32(a4)
80000bd8: 13 07 47 02                  	addi	a4, a4, 36
80000bdc: 93 85 45 02                  	addi	a1, a1, 36
80000be0: e3 68 f7 fa                  	bltu	a4, a5, -80
80000be4: 6f f0 9f f1                  	j	-232

80000be8 memset:
80000be8: 13 03 f0 00                  	addi	t1, zero, 15
80000bec: 13 07 05 00                  	mv	a4, a0
80000bf0: 63 7e c3 02                  	bgeu	t1, a2, 60
80000bf4: 93 77 f7 00                  	andi	a5, a4, 15
80000bf8: 63 90 07 0a                  	bnez	a5, 160
80000bfc: 63 92 05 08                  	bnez	a1, 132
80000c00: 93 76 06 ff                  	andi	a3, a2, -16
80000c04: 13 76 f6 00                  	andi	a2, a2, 15
80000c08: b3 86 e6 00                  	add	a3, a3, a4
80000c0c: 23 20 b7 00                  	sw	a1, 0(a4)
80000c10: 23 22 b7 00                  	sw	a1, 4(a4)
80000c14: 23 24 b7 00                  	sw	a1, 8(a4)
80000c18: 23 26 b7 00                  	sw	a1, 12(a4)
80000c1c: 13 07 07 01                  	addi	a4, a4, 16
80000c20: e3 66 d7 fe                  	bltu	a4, a3, -20
80000c24: 63 14 06 00                  	bnez	a2, 8
80000c28: 67 80 00 00                  	ret
80000c2c: b3 06 c3 40                  	sub	a3, t1, a2
80000c30: 93 96 26 00                  	slli	a3, a3, 2
80000c34: 97 02 00 00                  	auipc	t0, 0
80000c38: b3 86 56 00                  	add	a3, a3, t0
80000c3c: 67 80 c6 00                  	jr	12(a3)
80000c40: 23 07 b7 00                  	sb	a1, 14(a4)
80000c44: a3 06 b7 00                  	sb	a1, 13(a4)
80000c48: 23 06 b7 00                  	sb	a1, 12(a4)
80000c4c: a3 05 b7 00                  	sb	a1, 11(a4)
80000c50: 23 05 b7 00                  	sb	a1, 10(a4)
80000c54: a3 04 b7 00                  	sb	a1, 9(a4)
80000c58: 23 04 b7 00                  	sb	a1, 8(a4)
80000c5c: a3 03 b7 00                  	sb	a1, 7(a4)
80000c60: 23 03 b7 00                  	sb	a1, 6(a4)
80000c64: a3 02 b7 00                  	sb	a1, 5(a4)
80000c68: 23 02 b7 00                  	sb	a1, 4(a4)
80000c6c: a3 01 b7 00                  	sb	a1, 3(a4)
80000c70: 23 01 b7 00                  	sb	a1, 2(a4)
80000c74: a3 00 b7 00                  	sb	a1, 1(a4)
80000c78: 23 00 b7 00                  	sb	a1, 0(a4)
80000c7c: 67 80 00 00                  	ret
80000c80: 93 f5 f5 0f                  	andi	a1, a1, 255
80000c84: 93 96 85 00                  	slli	a3, a1, 8
80000c88: b3 e5 d5 00                  	or	a1, a1, a3
80000c8c: 93 96 05 01                  	slli	a3, a1, 16
80000c90: b3 e5 d5 00                  	or	a1, a1, a3
80000c94: 6f f0 df f6                  	j	-148
80000c98: 93 96 27 00                  	slli	a3, a5, 2
80000c9c: 97 02 00 00                  	auipc	t0, 0
80000ca0: b3 86 56 00                  	add	a3, a3, t0
80000ca4: 93 82 00 00                  	mv	t0, ra
80000ca8: e7 80 06 fa                  	jalr	-96(a3)
80000cac: 93 80 02 00                  	mv	ra, t0
80000cb0: 93 87 07 ff                  	addi	a5, a5, -16
80000cb4: 33 07 f7 40                  	sub	a4, a4, a5
80000cb8: 33 06 f6 00                  	add	a2, a2, a5
80000cbc: e3 78 c3 f6                  	bgeu	t1, a2, -144
80000cc0: 6f f0 df f3                  	j	-196

80000cc4 __register_exitproc:
80000cc4: b7 17 00 80                  	lui	a5, 524289
80000cc8: 03 a7 07 43                  	lw	a4, 1072(a5)
80000ccc: 83 27 87 14                  	lw	a5, 328(a4)
80000cd0: 63 8c 07 04                  	beqz	a5, 88
80000cd4: 03 a7 47 00                  	lw	a4, 4(a5)
80000cd8: 13 08 f0 01                  	addi	a6, zero, 31
80000cdc: 63 4e e8 06                  	blt	a6, a4, 124
80000ce0: 13 18 27 00                  	slli	a6, a4, 2
80000ce4: 63 06 05 02                  	beqz	a0, 44
80000ce8: 33 83 07 01                  	add	t1, a5, a6
80000cec: 23 24 c3 08                  	sw	a2, 136(t1)
80000cf0: 83 a8 87 18                  	lw	a7, 392(a5)
80000cf4: 13 06 10 00                  	addi	a2, zero, 1
80000cf8: 33 16 e6 00                  	sll	a2, a2, a4
80000cfc: b3 e8 c8 00                  	or	a7, a7, a2
80000d00: 23 a4 17 19                  	sw	a7, 392(a5)
80000d04: 23 24 d3 10                  	sw	a3, 264(t1)
80000d08: 93 06 20 00                  	addi	a3, zero, 2
80000d0c: 63 04 d5 02                  	beq	a0, a3, 40
80000d10: 13 07 17 00                  	addi	a4, a4, 1
80000d14: 23 a2 e7 00                  	sw	a4, 4(a5)
80000d18: b3 87 07 01                  	add	a5, a5, a6
80000d1c: 23 a4 b7 00                  	sw	a1, 8(a5)
80000d20: 13 05 00 00                  	mv	a0, zero
80000d24: 67 80 00 00                  	ret
80000d28: 93 07 c7 14                  	addi	a5, a4, 332
80000d2c: 23 24 f7 14                  	sw	a5, 328(a4)
80000d30: 6f f0 5f fa                  	j	-92
80000d34: 83 a6 c7 18                  	lw	a3, 396(a5)
80000d38: 13 07 17 00                  	addi	a4, a4, 1
80000d3c: 23 a2 e7 00                  	sw	a4, 4(a5)
80000d40: 33 e6 c6 00                  	or	a2, a3, a2
80000d44: 23 a6 c7 18                  	sw	a2, 396(a5)
80000d48: b3 87 07 01                  	add	a5, a5, a6
80000d4c: 23 a4 b7 00                  	sw	a1, 8(a5)
80000d50: 13 05 00 00                  	mv	a0, zero
80000d54: 67 80 00 00                  	ret
80000d58: 13 05 f0 ff                  	addi	a0, zero, -1
80000d5c: 67 80 00 00                  	ret

80000d60 __call_exitprocs:
80000d60: 13 01 01 fd                  	addi	sp, sp, -48
80000d64: b7 17 00 80                  	lui	a5, 524289
80000d68: 23 2c 41 01                  	sw	s4, 24(sp)
80000d6c: 03 aa 07 43                  	lw	s4, 1072(a5)
80000d70: 23 20 21 03                  	sw	s2, 32(sp)
80000d74: 23 26 11 02                  	sw	ra, 44(sp)
80000d78: 03 29 8a 14                  	lw	s2, 328(s4)
80000d7c: 23 24 81 02                  	sw	s0, 40(sp)
80000d80: 23 22 91 02                  	sw	s1, 36(sp)
80000d84: 23 2e 31 01                  	sw	s3, 28(sp)
80000d88: 23 2a 51 01                  	sw	s5, 20(sp)
80000d8c: 23 28 61 01                  	sw	s6, 16(sp)
80000d90: 23 26 71 01                  	sw	s7, 12(sp)
80000d94: 23 24 81 01                  	sw	s8, 8(sp)
80000d98: 63 00 09 04                  	beqz	s2, 64
80000d9c: 13 0b 05 00                  	mv	s6, a0
80000da0: 93 8b 05 00                  	mv	s7, a1
80000da4: 93 0a 10 00                  	addi	s5, zero, 1
80000da8: 93 09 f0 ff                  	addi	s3, zero, -1
80000dac: 83 24 49 00                  	lw	s1, 4(s2)
80000db0: 13 84 f4 ff                  	addi	s0, s1, -1
80000db4: 63 42 04 02                  	bltz	s0, 36
80000db8: 93 94 24 00                  	slli	s1, s1, 2
80000dbc: b3 04 99 00                  	add	s1, s2, s1
80000dc0: 63 84 0b 04                  	beqz	s7, 72
80000dc4: 83 a7 44 10                  	lw	a5, 260(s1)
80000dc8: 63 80 77 05                  	beq	a5, s7, 64
80000dcc: 13 04 f4 ff                  	addi	s0, s0, -1
80000dd0: 93 84 c4 ff                  	addi	s1, s1, -4
80000dd4: e3 16 34 ff                  	bne	s0, s3, -20
80000dd8: 83 20 c1 02                  	lw	ra, 44(sp)
80000ddc: 03 24 81 02                  	lw	s0, 40(sp)
80000de0: 83 24 41 02                  	lw	s1, 36(sp)
80000de4: 03 29 01 02                  	lw	s2, 32(sp)
80000de8: 83 29 c1 01                  	lw	s3, 28(sp)
80000dec: 03 2a 81 01                  	lw	s4, 24(sp)
80000df0: 83 2a 41 01                  	lw	s5, 20(sp)
80000df4: 03 2b 01 01                  	lw	s6, 16(sp)
80000df8: 83 2b c1 00                  	lw	s7, 12(sp)
80000dfc: 03 2c 81 00                  	lw	s8, 8(sp)
80000e00: 13 01 01 03                  	addi	sp, sp, 48
80000e04: 67 80 00 00                  	ret
80000e08: 83 27 49 00                  	lw	a5, 4(s2)
80000e0c: 83 a6 44 00                  	lw	a3, 4(s1)
80000e10: 93 87 f7 ff                  	addi	a5, a5, -1
80000e14: 63 8e 87 04                  	beq	a5, s0, 92
80000e18: 23 a2 04 00                  	sw	zero, 4(s1)
80000e1c: e3 88 06 fa                  	beqz	a3, -80
80000e20: 83 27 89 18                  	lw	a5, 392(s2)
80000e24: 33 97 8a 00                  	sll	a4, s5, s0
80000e28: 03 2c 49 00                  	lw	s8, 4(s2)
80000e2c: b3 77 f7 00                  	and	a5, a4, a5
80000e30: 63 92 07 02                  	bnez	a5, 36
80000e34: e7 80 06 00                  	jalr	a3
80000e38: 03 27 49 00                  	lw	a4, 4(s2)
80000e3c: 83 27 8a 14                  	lw	a5, 328(s4)
80000e40: 63 14 87 01                  	bne	a4, s8, 8
80000e44: e3 04 f9 f8                  	beq	s2, a5, -120
80000e48: e3 88 07 f8                  	beqz	a5, -112
80000e4c: 13 89 07 00                  	mv	s2, a5
80000e50: 6f f0 df f5                  	j	-164
80000e54: 83 27 c9 18                  	lw	a5, 396(s2)
80000e58: 83 a5 44 08                  	lw	a1, 132(s1)
80000e5c: 33 77 f7 00                  	and	a4, a4, a5
80000e60: 63 1c 07 00                  	bnez	a4, 24
80000e64: 13 05 0b 00                  	mv	a0, s6
80000e68: e7 80 06 00                  	jalr	a3
80000e6c: 6f f0 df fc                  	j	-52
80000e70: 23 22 89 00                  	sw	s0, 4(s2)
80000e74: 6f f0 9f fa                  	j	-88
80000e78: 13 85 05 00                  	mv	a0, a1
80000e7c: e7 80 06 00                  	jalr	a3
80000e80: 6f f0 9f fb                  	j	-72

Disassembly of section .init_array:

80001000 __tdata_start:
80001000: 6c 00                        	<unknown>
80001002: 00 80                        	<unknown>

Disassembly of section .data:

80001008 impure_data:
80001008: 00 00                        	<unknown>
8000100a: 00 00                        	<unknown>
8000100c: f4 12                        	<unknown>
8000100e: 00 80                        	<unknown>
80001010: 5c 13                        	<unknown>
80001012: 00 80                        	<unknown>
80001014: c4 13                        	<unknown>
80001016: 00 80                        	<unknown>
		...
800010b0: 01 00                        	<unknown>
800010b2: 00 00                        	<unknown>
800010b4: 00 00                        	<unknown>
800010b6: 00 00                        	<unknown>
800010b8: 0e 33                        	<unknown>
800010ba: cd ab                        	<unknown>
800010bc: 34 12                        	<unknown>
800010be: 6d e6                        	<unknown>
800010c0: ec de                        	<unknown>
800010c2: 05 00                        	<unknown>
800010c4: 0b 00 00 00                  	<unknown>
		...

Disassembly of section .sdata:

80001430 _global_impure_ptr:
80001430: 08 10                        	<unknown>
80001432: 00 80                        	<unknown>

Disassembly of section .bss:

80001434 g_wspawn_args:
...

Disassembly of section .comment:

00000000 .comment:
       0: 63 6c 61 6e                  	bltu	sp, t1, 1784
       4: 67 20 76 65                  	<unknown>
       8: 72 73                        	<unknown>
       a: 69 6f                        	<unknown>
       c: 6e 20                        	<unknown>
       e: 31 30                        	<unknown>
      10: 2e 30                        	<unknown>
      12: 2e 31                        	<unknown>
      14: 20 28                        	<unknown>
      16: 68 74                        	<unknown>
      18: 74 70                        	<unknown>
      1a: 73 3a 2f 2f                  	csrrc	s4, 754, t5
      1e: 67 69 74 68                  	<unknown>
      22: 75 62                        	<unknown>
      24: 2e 63                        	<unknown>
      26: 6f 6d 2f 76                  	jal	s10, 1009506
      2a: 6f 72 74 65                  	jal	tp, 294486
      2e: 78 67                        	<unknown>
      30: 70 67                        	<unknown>
      32: 70 75                        	<unknown>
      34: 2f 6c 6c 76                  	<unknown>
      38: 6d 2e                        	<unknown>
      3a: 67 69 74 20                  	<unknown>
      3e: 39 37                        	<unknown>
      40: 64 35                        	<unknown>
      42: 66 33                        	<unknown>
      44: 34 32                        	<unknown>
      46: 64 32                        	<unknown>
      48: 31 32                        	<unknown>
      4a: 63 37 34 39                  	<unknown>
      4e: 30 38                        	<unknown>
      50: 38 34                        	<unknown>
      52: 65 66                        	<unknown>
      54: 65 62                        	<unknown>
      56: 62 65                        	<unknown>
      58: 31 38                        	<unknown>
      5a: 63 37 38 38                  	<unknown>
      5e: 62 63                        	<unknown>
      60: 39 39                        	<unknown>
      62: 39 65                        	<unknown>
      64: 33 30 29 00                  	sltu	zero, s2, sp
      68: 47 43 43 3a                  	<unknown>
      6c: 20 28                        	<unknown>
      6e: 47 4e 55 29                  	fmsub.s	ft8, fa0, fs5, ft5, rmm
      72: 20 39                        	<unknown>
      74: 2e 32                        	<unknown>
      76: 2e 30                        	<unknown>
      78: 00                           	<unknown>

Disassembly of section .riscv.attributes:

00000000 .riscv.attributes:
       0: 41 25                        	<unknown>
       2: 00 00                        	<unknown>
       4: 00 72                        	<unknown>
       6: 69 73                        	<unknown>
       8: 63 76 00 01                  	bgeu	zero, a6, 12
       c: 1b 00 00 00                  	<unknown>
      10: 04 10                        	<unknown>
      12: 05 72                        	<unknown>
      14: 76 33                        	<unknown>
      16: 32 69                        	<unknown>
      18: 32 70                        	<unknown>
      1a: 30 5f                        	<unknown>
      1c: 6d 32                        	<unknown>
      1e: 70 30                        	<unknown>
      20: 5f 66 32 70                  	<unknown>
      24: 30 00                        	<unknown>

Disassembly of section .symtab:

00000000 .symtab:
		...
      14: 00 00                        	<unknown>
      16: 00 80                        	<unknown>
      18: 00 00                        	<unknown>
      1a: 00 00                        	<unknown>
      1c: 03 00 01 00                  	lb	zero, 0(sp)
      20: 00 00                        	<unknown>
      22: 00 00                        	<unknown>
      24: 6c 00                        	<unknown>
      26: 00 80                        	<unknown>
      28: 00 00                        	<unknown>
      2a: 00 00                        	<unknown>
      2c: 03 00 02 00                  	lb	zero, 0(tp)
      30: 00 00                        	<unknown>
      32: 00 00                        	<unknown>
      34: 00 10                        	<unknown>
      36: 00 80                        	<unknown>
      38: 00 00                        	<unknown>
      3a: 00 00                        	<unknown>
      3c: 03 00 03 00                  	lb	zero, 0(t1)
      40: 00 00                        	<unknown>
      42: 00 00                        	<unknown>
      44: 08 10                        	<unknown>
      46: 00 80                        	<unknown>
      48: 00 00                        	<unknown>
      4a: 00 00                        	<unknown>
      4c: 03 00 04 00                  	lb	zero, 0(s0)
      50: 00 00                        	<unknown>
      52: 00 00                        	<unknown>
      54: 30 14                        	<unknown>
      56: 00 80                        	<unknown>
      58: 00 00                        	<unknown>
      5a: 00 00                        	<unknown>
      5c: 03 00 05 00                  	lb	zero, 0(a0)
      60: 00 00                        	<unknown>
      62: 00 00                        	<unknown>
      64: 34 14                        	<unknown>
      66: 00 80                        	<unknown>
      68: 00 00                        	<unknown>
      6a: 00 00                        	<unknown>
      6c: 03 00 06 00                  	lb	zero, 0(a2)
		...
      7c: 03 00 07 00                  	lb	zero, 0(a4)
		...
      8c: 03 00 08 00                  	lb	zero, 0(a6)
      90: 01 00                        	<unknown>
		...
      9a: 00 00                        	<unknown>
      9c: 04 00                        	<unknown>
      9e: f1 ff                        	<unknown>
      a0: 0e 00                        	<unknown>
      a2: 00 00                        	<unknown>
      a4: 60 03                        	<unknown>
      a6: 00 80                        	<unknown>
      a8: 00 00                        	<unknown>
      aa: 00 00                        	<unknown>
      ac: 00 00                        	<unknown>
      ae: 02 00                        	<unknown>
      b0: 15 00                        	<unknown>
		...
      ba: 00 00                        	<unknown>
      bc: 04 00                        	<unknown>
      be: f1 ff                        	<unknown>
      c0: 25 00                        	<unknown>
      c2: 00 00                        	<unknown>
      c4: 6c 00                        	<unknown>
      c6: 00 80                        	<unknown>
      c8: 18 00                        	<unknown>
      ca: 00 00                        	<unknown>
      cc: 02 00                        	<unknown>
      ce: 02 00                        	<unknown>
      d0: 33 00 00 00                  	add	zero, zero, zero
		...
      dc: 04 00                        	<unknown>
      de: f1 ff                        	<unknown>
      e0: 57 00 00 00                  	<unknown>
		...
      ec: 04 00                        	<unknown>
      ee: f1 ff                        	<unknown>
      f0: 63 00 00 00                  	beqz	zero, 0
		...
      fc: 04 00                        	<unknown>
      fe: f1 ff                        	<unknown>
     100: 71 00                        	<unknown>
		...
     10a: 00 00                        	<unknown>
     10c: 04 00                        	<unknown>
     10e: f1 ff                        	<unknown>
     110: 7c 00                        	<unknown>
     112: 00 00                        	<unknown>
     114: b0 04                        	<unknown>
     116: 00 80                        	<unknown>
     118: 3c 01                        	<unknown>
     11a: 00 00                        	<unknown>
     11c: 02 00                        	<unknown>
     11e: 02 00                        	<unknown>
     120: 92 00                        	<unknown>
     122: 00 00                        	<unknown>
     124: ec 05                        	<unknown>
     126: 00 80                        	<unknown>
     128: a4 00                        	<unknown>
     12a: 00 00                        	<unknown>
     12c: 02 00                        	<unknown>
     12e: 02 00                        	<unknown>
     130: a8 00                        	<unknown>
     132: 00 00                        	<unknown>
     134: 90 06                        	<unknown>
     136: 00 80                        	<unknown>
     138: 2c 00                        	<unknown>
     13a: 00 00                        	<unknown>
     13c: 02 00                        	<unknown>
     13e: 02 00                        	<unknown>
     140: bc 00                        	<unknown>
		...
     14a: 00 00                        	<unknown>
     14c: 04 00                        	<unknown>
     14e: f1 ff                        	<unknown>
     150: d1 00                        	<unknown>
		...
     15a: 00 00                        	<unknown>
     15c: 04 00                        	<unknown>
     15e: f1 ff                        	<unknown>
     160: d3 00 00 00                  	fadd.s	ft1, ft0, ft0, rne
		...
     16c: 04 00                        	<unknown>
     16e: f1 ff                        	<unknown>
     170: c6 00                        	<unknown>
		...
     17a: 00 00                        	<unknown>
     17c: 04 00                        	<unknown>
     17e: f1 ff                        	<unknown>
     180: cf 00 00 00                  	fnmadd.s	ft1, ft0, ft0, ft0, rne
		...
     18c: 04 00                        	<unknown>
     18e: f1 ff                        	<unknown>
     190: da 00                        	<unknown>
		...
     19a: 00 00                        	<unknown>
     19c: 04 00                        	<unknown>
     19e: f1 ff                        	<unknown>
     1a0: e3 00 00 00                  	beqz	zero, 2048
     1a4: 08 10                        	<unknown>
     1a6: 00 80                        	<unknown>
     1a8: 28 04                        	<unknown>
     1aa: 00 00                        	<unknown>
     1ac: 01 00                        	<unknown>
     1ae: 04 00                        	<unknown>
		...
     1bc: 04 00                        	<unknown>
     1be: f1 ff                        	<unknown>
     1c0: ef 00 00 00                  	jal	0
     1c4: 04 10                        	<unknown>
     1c6: 00 80                        	<unknown>
     1c8: 00 00                        	<unknown>
     1ca: 00 00                        	<unknown>
     1cc: 00 00                        	<unknown>
     1ce: 03 00 00 01                  	lb	zero, 16(zero)
     1d2: 00 00                        	<unknown>
     1d4: 00 10                        	<unknown>
     1d6: 00 80                        	<unknown>
     1d8: 00 00                        	<unknown>
     1da: 00 00                        	<unknown>
     1dc: 00 00                        	<unknown>
     1de: 03 00 0d 01                  	lb	zero, 16(s10)
     1e2: 00 00                        	<unknown>
     1e4: 04 10                        	<unknown>
     1e6: 00 80                        	<unknown>
     1e8: 00 00                        	<unknown>
     1ea: 00 00                        	<unknown>
     1ec: 00 00                        	<unknown>
     1ee: 03 00 20 01                  	lb	zero, 18(zero)
     1f2: 00 00                        	<unknown>
     1f4: 00 10                        	<unknown>
     1f6: 00 80                        	<unknown>
     1f8: 00 00                        	<unknown>
     1fa: 00 00                        	<unknown>
     1fc: 00 00                        	<unknown>
     1fe: 03 00 2e 01                  	lb	zero, 18(t3)
     202: 00 00                        	<unknown>
     204: 04 10                        	<unknown>
     206: 00 80                        	<unknown>
     208: 00 00                        	<unknown>
     20a: 00 00                        	<unknown>
     20c: 00 00                        	<unknown>
     20e: 03 00 3f 01                  	lb	zero, 19(t5)
		...
     21e: f1 ff                        	<unknown>
     220: 4d 01                        	<unknown>
     222: 00 00                        	<unknown>
     224: 00 10                        	<unknown>
     226: 00 80                        	<unknown>
     228: 00 00                        	<unknown>
     22a: 00 00                        	<unknown>
     22c: 00 00                        	<unknown>
     22e: 03 00 61 01                  	lb	zero, 22(sp)
     232: 00 00                        	<unknown>
     234: 00 10                        	<unknown>
     236: 00 80                        	<unknown>
     238: 00 00                        	<unknown>
     23a: 00 00                        	<unknown>
     23c: 00 00                        	<unknown>
     23e: 03 00 6c 01                  	lb	zero, 22(s8)
     242: 00 00                        	<unknown>
     244: 00 10                        	<unknown>
     246: 00 80                        	<unknown>
     248: 00 00                        	<unknown>
     24a: 00 00                        	<unknown>
     24c: 00 00                        	<unknown>
     24e: 03 00 7f 01                  	lb	zero, 23(t5)
     252: 00 00                        	<unknown>
     254: 00 10                        	<unknown>
     256: 00 80                        	<unknown>
     258: 00 00                        	<unknown>
     25a: 00 00                        	<unknown>
     25c: 00 00                        	<unknown>
     25e: 03 00 95 01                  	lb	zero, 25(a0)
		...
     26a: 00 00                        	<unknown>
     26c: 10 00                        	<unknown>
     26e: f1 ff                        	<unknown>
     270: a3 01 00 00                  	sb	zero, 3(zero)
     274: 00 04                        	<unknown>
     276: 00 00                        	<unknown>
     278: 00 00                        	<unknown>
     27a: 00 00                        	<unknown>
     27c: 10 00                        	<unknown>
     27e: f1 ff                        	<unknown>
     280: b0 01                        	<unknown>
     282: 00 00                        	<unknown>
     284: 34 14                        	<unknown>
     286: 00 80                        	<unknown>
     288: 80 00                        	<unknown>
     28a: 00 00                        	<unknown>
     28c: 11 00                        	<unknown>
     28e: 06 00                        	<unknown>
     290: be 01                        	<unknown>
     292: 00 00                        	<unknown>
     294: 30 14                        	<unknown>
     296: 00 80                        	<unknown>
     298: 00 00                        	<unknown>
     29a: 00 00                        	<unknown>
     29c: 10 00                        	<unknown>
     29e: 05 00                        	<unknown>
     2a0: ce 01                        	<unknown>
     2a2: 00 00                        	<unknown>
     2a4: cc 0a                        	<unknown>
     2a6: 00 80                        	<unknown>
     2a8: 1c 01                        	<unknown>
     2aa: 00 00                        	<unknown>
     2ac: 12 00                        	<unknown>
     2ae: 02 00                        	<unknown>
     2b0: d5 01                        	<unknown>
     2b2: 00 00                        	<unknown>
     2b4: 08 18                        	<unknown>
     2b6: 00 80                        	<unknown>
     2b8: 00 00                        	<unknown>
     2ba: 00 00                        	<unknown>
     2bc: 10 00                        	<unknown>
     2be: f1 ff                        	<unknown>
     2c0: e6 01                        	<unknown>
     2c2: 00 00                        	<unknown>
     2c4: 30 14                        	<unknown>
     2c6: 00 80                        	<unknown>
     2c8: 04 00                        	<unknown>
     2ca: 00 00                        	<unknown>
     2cc: 11 00                        	<unknown>
     2ce: 05 00                        	<unknown>
     2d0: f9 01                        	<unknown>
     2d2: 00 00                        	<unknown>
     2d4: c0 03                        	<unknown>
     2d6: 00 80                        	<unknown>
     2d8: 94 00                        	<unknown>
     2da: 00 00                        	<unknown>
     2dc: 12 00                        	<unknown>
     2de: 02 00                        	<unknown>
     2e0: 0b 02 00 00                  	<unknown>
     2e4: 64 03                        	<unknown>
     2e6: 00 80                        	<unknown>
     2e8: 5c 00                        	<unknown>
     2ea: 00 00                        	<unknown>
     2ec: 12 00                        	<unknown>
     2ee: 02 00                        	<unknown>
     2f0: 16 02                        	<unknown>
     2f2: 00 00                        	<unknown>
     2f4: 54 04                        	<unknown>
     2f6: 00 80                        	<unknown>
     2f8: 5c 00                        	<unknown>
     2fa: 00 00                        	<unknown>
     2fc: 12 00                        	<unknown>
     2fe: 02 00                        	<unknown>
     300: 28 02                        	<unknown>
		...
     30a: 00 00                        	<unknown>
     30c: 10 00                        	<unknown>
     30e: f1 ff                        	<unknown>
     310: 35 02                        	<unknown>
     312: 00 00                        	<unknown>
     314: b4 00                        	<unknown>
     316: 00 80                        	<unknown>
     318: d0 00                        	<unknown>
     31a: 00 00                        	<unknown>
     31c: 12 00                        	<unknown>
     31e: 02 00                        	<unknown>
     320: 48 02                        	<unknown>
		...
     32a: 00 00                        	<unknown>
     32c: 10 00                        	<unknown>
     32e: f1 ff                        	<unknown>
     330: 54 02                        	<unknown>
     332: 00 00                        	<unknown>
     334: 60 0d                        	<unknown>
     336: 00 80                        	<unknown>
     338: 24 01                        	<unknown>
     33a: 00 00                        	<unknown>
     33c: 12 00                        	<unknown>
     33e: 02 00                        	<unknown>
     340: 27 01 00 00                  	<unknown>
     344: 00 00                        	<unknown>
     346: 00 80                        	<unknown>
     348: 6c 00                        	<unknown>
     34a: 00 00                        	<unknown>
     34c: 12 00                        	<unknown>
     34e: 01 00                        	<unknown>
     350: 65 02                        	<unknown>
     352: 00 00                        	<unknown>
     354: c4 0c                        	<unknown>
     356: 00 80                        	<unknown>
     358: 9c 00                        	<unknown>
     35a: 00 00                        	<unknown>
     35c: 12 00                        	<unknown>
     35e: 02 00                        	<unknown>
     360: 79 02                        	<unknown>
     362: 00 00                        	<unknown>
     364: b4 14                        	<unknown>
     366: 00 80                        	<unknown>
     368: 00 00                        	<unknown>
     36a: 00 00                        	<unknown>
     36c: 10 00                        	<unknown>
     36e: 06 00                        	<unknown>
     370: 85 02                        	<unknown>
     372: 00 00                        	<unknown>
     374: 34 14                        	<unknown>
     376: 00 80                        	<unknown>
     378: 00 00                        	<unknown>
     37a: 00 00                        	<unknown>
     37c: 10 00                        	<unknown>
     37e: 06 00                        	<unknown>
     380: 91 02                        	<unknown>
     382: 00 00                        	<unknown>
     384: e8 0b                        	<unknown>
     386: 00 80                        	<unknown>
     388: dc 00                        	<unknown>
     38a: 00 00                        	<unknown>
     38c: 12 00                        	<unknown>
     38e: 02 00                        	<unknown>
     390: 98 02                        	<unknown>
     392: 00 00                        	<unknown>
     394: 84 00                        	<unknown>
     396: 00 80                        	<unknown>
     398: 30 00                        	<unknown>
     39a: 00 00                        	<unknown>
     39c: 12 00                        	<unknown>
     39e: 02 00                        	<unknown>
     3a0: 9d 02                        	<unknown>
     3a2: 00 00                        	<unknown>
     3a4: 18 03                        	<unknown>
     3a6: 00 80                        	<unknown>
     3a8: 00 00                        	<unknown>
     3aa: 00 00                        	<unknown>
     3ac: 12 00                        	<unknown>
     3ae: 02 00                        	<unknown>
     3b0: a7 02 00 00                  	<unknown>
     3b4: 48 02                        	<unknown>
     3b6: 00 80                        	<unknown>
     3b8: bc 00                        	<unknown>
     3ba: 00 00                        	<unknown>
     3bc: 12 00                        	<unknown>
     3be: 02 00                        	<unknown>
     3c0: c9 02                        	<unknown>
     3c2: 00 00                        	<unknown>
     3c4: 84 0a                        	<unknown>
     3c6: 00 80                        	<unknown>
     3c8: 14 00                        	<unknown>
     3ca: 00 00                        	<unknown>
     3cc: 12 00                        	<unknown>
     3ce: 02 00                        	<unknown>
     3d0: d0 02                        	<unknown>
		...
     3da: 00 00                        	<unknown>
     3dc: 10 00                        	<unknown>
     3de: f1 ff                        	<unknown>
     3e0: e3 02 00 00                  	beqz	zero, 2052
     3e4: 08 10                        	<unknown>
     3e6: 00 80                        	<unknown>
     3e8: 00 00                        	<unknown>
     3ea: 00 00                        	<unknown>
     3ec: 10 00                        	<unknown>
     3ee: 04 00                        	<unknown>
     3f0: f2 02                        	<unknown>
     3f2: 00 00                        	<unknown>
     3f4: 34 14                        	<unknown>
     3f6: 00 80                        	<unknown>
     3f8: 00 00                        	<unknown>
     3fa: 00 00                        	<unknown>
     3fc: 10 00                        	<unknown>
     3fe: 05 00                        	<unknown>
     400: 67 01 00 00                  	jalr	sp, zero
     404: b4 14                        	<unknown>
     406: 00 80                        	<unknown>
     408: 00 00                        	<unknown>
     40a: 00 00                        	<unknown>
     40c: 10 00                        	<unknown>
     40e: 06 00                        	<unknown>
     410: 07 03 00 00                  	<unknown>
     414: 98 0a                        	<unknown>
     416: 00 80                        	<unknown>
     418: 34 00                        	<unknown>
     41a: 00 00                        	<unknown>
     41c: 12 00                        	<unknown>
     41e: 02 00                        	<unknown>
     420: f9 02                        	<unknown>
     422: 00 00                        	<unknown>
     424: 70 08                        	<unknown>
     426: 00 80                        	<unknown>
     428: 14 02                        	<unknown>
     42a: 00 00                        	<unknown>
     42c: 12 00                        	<unknown>
     42e: 02 00                        	<unknown>
     430: 06 03                        	<unknown>
     432: 00 00                        	<unknown>
     434: 04 03                        	<unknown>
     436: 00 80                        	<unknown>
     438: 00 00                        	<unknown>
     43a: 00 00                        	<unknown>
     43c: 12 00                        	<unknown>
     43e: 02 00                        	<unknown>
     440: 0c 03                        	<unknown>
     442: 00 00                        	<unknown>
     444: 84 01                        	<unknown>
     446: 00 80                        	<unknown>
     448: c4 00                        	<unknown>
     44a: 00 00                        	<unknown>
     44c: 12 00                        	<unknown>
     44e: 02 00                        	<unknown>
     450: 29 03                        	<unknown>
     452: 00 00                        	<unknown>
     454: bc 06                        	<unknown>
     456: 00 80                        	<unknown>
     458: b4 01                        	<unknown>
     45a: 00 00                        	<unknown>
     45c: 12 00                        	<unknown>
     45e: 02 00                        	<unknown>

Disassembly of section .strtab:

00000000 .strtab:
       0: 00 76                        	<unknown>
       2: 78 5f                        	<unknown>
       4: 73 74 61 72                  	csrrci	s0, 1830, 2
       8: 74 2e                        	<unknown>
       a: 53 2e 6f 00                  	fadd.s	ft8, ft10, ft6, rdn
       e: 52 45                        	<unknown>
      10: 54 55                        	<unknown>
      12: 52 4e                        	<unknown>
      14: 00 5f                        	<unknown>
      16: 5f 63 61 6c                  	<unknown>
      1a: 6c 5f                        	<unknown>
      1c: 61 74                        	<unknown>
      1e: 65 78                        	<unknown>
      20: 69 74                        	<unknown>
      22: 2e 63                        	<unknown>
      24: 00 72                        	<unknown>
      26: 65 67                        	<unknown>
      28: 69 73                        	<unknown>
      2a: 74 65                        	<unknown>
      2c: 72 5f                        	<unknown>
      2e: 66 69                        	<unknown>
      30: 6e 69                        	<unknown>
      32: 00 70                        	<unknown>
      34: 6f 63 6c 5f                  	jal	t1, 812534
      38: 76 6f                        	<unknown>
      3a: 72 74                        	<unknown>
      3c: 65 78                        	<unknown>
      3e: 5f 6b 65 72                  	<unknown>
      42: 6e 65                        	<unknown>
      44: 6c 2d                        	<unknown>
      46: 63 62 2d 34                  	bltu	s10, sp, 836
      4a: 38 2d                        	<unknown>
      4c: 34 39                        	<unknown>
      4e: 2d 32                        	<unknown>
      50: 35 2d                        	<unknown>
      52: 64 32                        	<unknown>
      54: 2e 63                        	<unknown>
      56: 00 70                        	<unknown>
      58: 61 72                        	<unknown>
      5a: 61 6c                        	<unknown>
      5c: 6c 65                        	<unknown>
      5e: 6c 5f                        	<unknown>
      60: 62 63                        	<unknown>
      62: 00 76                        	<unknown>
      64: 78 5f                        	<unknown>
      66: 73 79 73 63                  	csrrci	s2, 1591, 6
      6a: 61 6c                        	<unknown>
      6c: 6c 73                        	<unknown>
      6e: 2e 63                        	<unknown>
      70: 00 76                        	<unknown>
      72: 78 5f                        	<unknown>
      74: 73 70 61 77                  	csrci	1910, 2
      78: 6e 2e                        	<unknown>
      7a: 63 00 73 70                  	beq	t1, t2, 1792
      7e: 61 77                        	<unknown>
      80: 6e 5f                        	<unknown>
      82: 6b 65 72 6e                  	<unknown>
      86: 65 6c                        	<unknown>
      88: 5f 61 6c 6c                  	<unknown>
      8c: 5f 73 74 75                  	<unknown>
      90: 62 00                        	<unknown>
      92: 73 70 61 77                  	csrci	1910, 2
      96: 6e 5f                        	<unknown>
      98: 6b 65 72 6e                  	<unknown>
      9c: 65 6c                        	<unknown>
      9e: 5f 72 65 6d                  	<unknown>
      a2: 5f 73 74 75                  	<unknown>
      a6: 62 00                        	<unknown>
      a8: 73 70 61 77                  	csrci	1910, 2
      ac: 6e 5f                        	<unknown>
      ae: 6b 65 72 6e                  	<unknown>
      b2: 65 6c                        	<unknown>
      b4: 5f 61 6c 6c                  	<unknown>
      b8: 5f 63 62 00                  	<unknown>
      bc: 76 78                        	<unknown>
      be: 5f 70 65 72                  	<unknown>
      c2: 66 2e                        	<unknown>
      c4: 63 00 6d 65                  	beq	s10, s6, 1600
      c8: 6d 63                        	<unknown>
      ca: 70 79                        	<unknown>
      cc: 2e 63                        	<unknown>
      ce: 00 5f                        	<unknown>
      d0: 5f 61 74 65                  	<unknown>
      d4: 78 69                        	<unknown>
      d6: 74 2e                        	<unknown>
      d8: 63 00 69 6d                  	beq	s2, s6, 1728
      dc: 70 75                        	<unknown>
      de: 72 65                        	<unknown>
      e0: 2e 63                        	<unknown>
      e2: 00 69                        	<unknown>
      e4: 6d 70                        	<unknown>
      e6: 75 72                        	<unknown>
      e8: 65 5f                        	<unknown>
      ea: 64 61                        	<unknown>
      ec: 74 61                        	<unknown>
      ee: 00 5f                        	<unknown>
      f0: 5f 66 69 6e                  	<unknown>
      f4: 69 5f                        	<unknown>
      f6: 61 72                        	<unknown>
      f8: 72 61                        	<unknown>
      fa: 79 5f                        	<unknown>
      fc: 65 6e                        	<unknown>
      fe: 64 00                        	<unknown>
     100: 5f 5f 74 62                  	<unknown>
     104: 73 73 5f 73                  	csrrci	t1, 1845, 30
     108: 74 61                        	<unknown>
     10a: 72 74                        	<unknown>
     10c: 00 5f                        	<unknown>
     10e: 5f 66 69 6e                  	<unknown>
     112: 69 5f                        	<unknown>
     114: 61 72                        	<unknown>
     116: 72 61                        	<unknown>
     118: 79 5f                        	<unknown>
     11a: 73 74 61 72                  	csrrci	s0, 1830, 2
     11e: 74 00                        	<unknown>
     120: 5f 5f 74 64                  	<unknown>
     124: 61 74                        	<unknown>
     126: 61 5f                        	<unknown>
     128: 73 74 61 72                  	csrrci	s0, 1830, 2
     12c: 74 00                        	<unknown>
     12e: 5f 5f 69 6e                  	<unknown>
     132: 69 74                        	<unknown>
     134: 5f 61 72 72                  	<unknown>
     138: 61 79                        	<unknown>
     13a: 5f 65 6e 64                  	<unknown>
     13e: 00 5f                        	<unknown>
     140: 5f 74 62 73                  	<unknown>
     144: 73 5f 6f 66                  	csrrwi	t5, 1638, 30
     148: 66 73                        	<unknown>
     14a: 65 74                        	<unknown>
     14c: 00 5f                        	<unknown>
     14e: 5f 70 72 65                  	<unknown>
     152: 69 6e                        	<unknown>
     154: 69 74                        	<unknown>
     156: 5f 61 72 72                  	<unknown>
     15a: 61 79                        	<unknown>
     15c: 5f 65 6e 64                  	<unknown>
     160: 00 5f                        	<unknown>
     162: 5f 74 62 73                  	<unknown>
     166: 73 5f 65 6e                  	csrrwi	t5, 1766, 10
     16a: 64 00                        	<unknown>
     16c: 5f 5f 69 6e                  	<unknown>
     170: 69 74                        	<unknown>
     172: 5f 61 72 72                  	<unknown>
     176: 61 79                        	<unknown>
     178: 5f 73 74 61                  	<unknown>
     17c: 72 74                        	<unknown>
     17e: 00 5f                        	<unknown>
     180: 5f 70 72 65                  	<unknown>
     184: 69 6e                        	<unknown>
     186: 69 74                        	<unknown>
     188: 5f 61 72 72                  	<unknown>
     18c: 61 79                        	<unknown>
     18e: 5f 73 74 61                  	<unknown>
     192: 72 74                        	<unknown>
     194: 00 5f                        	<unknown>
     196: 5f 73 74 61                  	<unknown>
     19a: 63 6b 5f 75                  	bltu	t5, s5, 1878
     19e: 73 61 67 65                  	csrrsi	sp, 1622, 14
     1a2: 00 5f                        	<unknown>
     1a4: 5f 73 74 61                  	<unknown>
     1a8: 63 6b 5f 73                  	bltu	t5, s5, 1846
     1ac: 69 7a                        	<unknown>
     1ae: 65 00                        	<unknown>
     1b0: 67 5f 77 73                  	<unknown>
     1b4: 70 61                        	<unknown>
     1b6: 77 6e 5f 61                  	<unknown>
     1ba: 72 67                        	<unknown>
     1bc: 73 00 5f 5f                  	<unknown>
     1c0: 53 44 41 54                  	<unknown>
     1c4: 41 5f                        	<unknown>
     1c6: 42 45                        	<unknown>
     1c8: 47 49 4e 5f                  	<unknown>
     1cc: 5f 00 6d 65                  	<unknown>
     1d0: 6d 63                        	<unknown>
     1d2: 70 79                        	<unknown>
     1d4: 00 5f                        	<unknown>
     1d6: 5f 67 6c 6f                  	<unknown>
     1da: 62 61                        	<unknown>
     1dc: 6c 5f                        	<unknown>
     1de: 70 6f                        	<unknown>
     1e0: 69 6e                        	<unknown>
     1e2: 74 65                        	<unknown>
     1e4: 72 00                        	<unknown>
     1e6: 5f 67 6c 6f                  	<unknown>
     1ea: 62 61                        	<unknown>
     1ec: 6c 5f                        	<unknown>
     1ee: 69 6d                        	<unknown>
     1f0: 70 75                        	<unknown>
     1f2: 72 65                        	<unknown>
     1f4: 5f 70 74 72                  	<unknown>
     1f8: 00 5f                        	<unknown>
     1fa: 5f 6c 69 62                  	<unknown>
     1fe: 63 5f 69 6e                  	bge	s2, t1, 1790
     202: 69 74                        	<unknown>
     204: 5f 61 72 72                  	<unknown>
     208: 61 79                        	<unknown>
     20a: 00 5f                        	<unknown>
     20c: 5f 69 6e 69                  	<unknown>
     210: 74 5f                        	<unknown>
     212: 74 6c                        	<unknown>
     214: 73 00 5f 5f                  	<unknown>
     218: 6c 69                        	<unknown>
     21a: 62 63                        	<unknown>
     21c: 5f 66 69 6e                  	<unknown>
     220: 69 5f                        	<unknown>
     222: 61 72                        	<unknown>
     224: 72 61                        	<unknown>
     226: 79 00                        	<unknown>
     228: 5f 5f 74 64                  	<unknown>
     22c: 61 74                        	<unknown>
     22e: 61 5f                        	<unknown>
     230: 73 69 7a 65                  	csrrsi	s2, 1623, 20
     234: 00 5f                        	<unknown>
     236: 70 6f                        	<unknown>
     238: 63 6c 5f 6b                  	bltu	t5, s5, 1720
     23c: 65 72                        	<unknown>
     23e: 6e 65                        	<unknown>
     240: 6c 5f                        	<unknown>
     242: 73 61 78 70                  	csrrsi	sp, 1799, 16
     246: 79 00                        	<unknown>
     248: 5f 5f 74 62                  	<unknown>
     24c: 73 73 5f 73                  	csrrci	t1, 1845, 30
     250: 69 7a                        	<unknown>
     252: 65 00                        	<unknown>
     254: 5f 5f 63 61                  	<unknown>
     258: 6c 6c                        	<unknown>
     25a: 5f 65 78 69                  	<unknown>
     25e: 74 70                        	<unknown>
     260: 72 6f                        	<unknown>
     262: 63 73 00 5f                  	bgeu	zero, a6, 1510
     266: 5f 72 65 67                  	<unknown>
     26a: 69 73                        	<unknown>
     26c: 74 65                        	<unknown>
     26e: 72 5f                        	<unknown>
     270: 65 78                        	<unknown>
     272: 69 74                        	<unknown>
     274: 70 72                        	<unknown>
     276: 6f 63 00 5f                  	jal	t1, 26096
     27a: 5f 42 53 53                  	<unknown>
     27e: 5f 45 4e 44                  	<unknown>
     282: 5f 5f 00 5f                  	<unknown>
     286: 5f 62 73 73                  	<unknown>
     28a: 5f 73 74 61                  	<unknown>
     28e: 72 74                        	<unknown>
     290: 00 6d                        	<unknown>
     292: 65 6d                        	<unknown>
     294: 73 65 74 00                  	csrrsi	a0, 7, 8
     298: 6d 61                        	<unknown>
     29a: 69 6e                        	<unknown>
     29c: 00 69                        	<unknown>
     29e: 6e 69                        	<unknown>
     2a0: 74 5f                        	<unknown>
     2a2: 72 65                        	<unknown>
     2a4: 67 73 00 5f                  	<unknown>
     2a8: 70 6f                        	<unknown>
     2aa: 63 6c 5f 6b                  	bltu	t5, s5, 1720
     2ae: 65 72                        	<unknown>
     2b0: 6e 65                        	<unknown>
     2b2: 6c 5f                        	<unknown>
     2b4: 73 61 78 70                  	csrrsi	sp, 1799, 16
     2b8: 79 5f                        	<unknown>
     2ba: 77 6f 72 6b                  	<unknown>
     2be: 67 72 6f 75                  	<unknown>
     2c2: 70 5f                        	<unknown>
     2c4: 66 61                        	<unknown>
     2c6: 73 74 00 61                  	csrrci	s0, 1552, 0
     2ca: 74 65                        	<unknown>
     2cc: 78 69                        	<unknown>
     2ce: 74 00                        	<unknown>
     2d0: 5f 5f 74 63                  	<unknown>
     2d4: 62 5f                        	<unknown>
     2d6: 61 6c                        	<unknown>
     2d8: 69 67                        	<unknown>
     2da: 6e 65                        	<unknown>
     2dc: 64 5f                        	<unknown>
     2de: 73 69 7a 65                  	csrrsi	s2, 1623, 20
     2e2: 00 5f                        	<unknown>
     2e4: 5f 44 41 54                  	<unknown>
     2e8: 41 5f                        	<unknown>
     2ea: 42 45                        	<unknown>
     2ec: 47 49 4e 5f                  	<unknown>
     2f0: 5f 00 5f 65                  	<unknown>
     2f4: 64 61                        	<unknown>
     2f6: 74 61                        	<unknown>
     2f8: 00 76                        	<unknown>
     2fa: 78 5f                        	<unknown>
     2fc: 70 65                        	<unknown>
     2fe: 72 66                        	<unknown>
     300: 5f 64 75 6d                  	<unknown>
     304: 70 00                        	<unknown>
     306: 5f 65 78 69                  	<unknown>
     30a: 74 00                        	<unknown>
     30c: 5f 70 6f 63                  	<unknown>
     310: 6c 5f                        	<unknown>
     312: 6b 65 72 6e                  	<unknown>
     316: 65 6c                        	<unknown>
     318: 5f 73 61 78                  	<unknown>
     31c: 70 79                        	<unknown>
     31e: 5f 77 6f 72                  	<unknown>
     322: 6b 67 72 6f                  	<unknown>
     326: 75 70                        	<unknown>
     328: 00 76                        	<unknown>
     32a: 78 5f                        	<unknown>
     32c: 73 70 61 77                  	csrci	1910, 2
     330: 6e 5f                        	<unknown>
     332: 6b 65 72 6e                  	<unknown>
     336: 65 6c                        	<unknown>
     338: 00                           	<unknown>

Disassembly of section .shstrtab:

00000000 .shstrtab:
       0: 00 2e                        	<unknown>
       2: 73 79 6d 74                  	csrrci	s2, 1862, 26
       6: 61 62                        	<unknown>
       8: 00 2e                        	<unknown>
       a: 73 74 72 74                  	csrrci	s0, 1863, 4
       e: 61 62                        	<unknown>
      10: 00 2e                        	<unknown>
      12: 73 68 73 74                  	csrrsi	a6, 1863, 6
      16: 72 74                        	<unknown>
      18: 61 62                        	<unknown>
      1a: 00 2e                        	<unknown>
      1c: 69 6e                        	<unknown>
      1e: 69 74                        	<unknown>
      20: 00 2e                        	<unknown>
      22: 74 65                        	<unknown>
      24: 78 74                        	<unknown>
      26: 00 2e                        	<unknown>
      28: 69 6e                        	<unknown>
      2a: 69 74                        	<unknown>
      2c: 5f 61 72 72                  	<unknown>
      30: 61 79                        	<unknown>
      32: 00 2e                        	<unknown>
      34: 64 61                        	<unknown>
      36: 74 61                        	<unknown>
      38: 00 2e                        	<unknown>
      3a: 73 64 61 74                  	csrrsi	s0, 1862, 2
      3e: 61 00                        	<unknown>
      40: 2e 62                        	<unknown>
      42: 73 73 00 2e                  	csrrci	t1, 736, 0
      46: 63 6f 6d 6d                  	bltu	s10, s6, 1758
      4a: 65 6e                        	<unknown>
      4c: 74 00                        	<unknown>
      4e: 2e 72                        	<unknown>
      50: 69 73                        	<unknown>
      52: 63 76 2e 61                  	bgeu	t3, s2, 1548
      56: 74 74                        	<unknown>
      58: 72 69                        	<unknown>
      5a: 62 75                        	<unknown>
      5c: 74 65                        	<unknown>
      5e: 73                           	<unknown>
      5f: 00                           	<unknown>
